
./bootloader.elf:     file format elf32-littleriscv


Disassembly of section .text:

ffff8000 <_start>:
ffff8000:	00000097          	auipc	ra,0x0
ffff8004:	07408093          	addi	ra,ra,116 # ffff8074 <_machine_exception_handler>
ffff8008:	30509073          	csrrw	zero,mtvec,ra

ffff800c <copy_data>:
ffff800c:	00002097          	auipc	ra,0x2
ffff8010:	4bc08093          	addi	ra,ra,1212 # ffffa4c8 <__text_end>
ffff8014:	00004117          	auipc	sp,0x4
ffff8018:	fec10113          	addi	sp,sp,-20 # ffffc000 <__data_begin>
ffff801c:	00004197          	auipc	gp,0x4
ffff8020:	fe418193          	addi	gp,gp,-28 # ffffc000 <__data_begin>
ffff8024:	00310c63          	beq	sp,gp,ffff803c <clear_bss>
ffff8028:	00008203          	lb	tp,0(ra)
ffff802c:	00410023          	sb	tp,0(sp)
ffff8030:	00108093          	addi	ra,ra,1
ffff8034:	00110113          	addi	sp,sp,1
ffff8038:	fe3118e3          	bne	sp,gp,ffff8028 <copy_data+0x1c>

ffff803c <clear_bss>:
ffff803c:	00004097          	auipc	ra,0x4
ffff8040:	fc408093          	addi	ra,ra,-60 # ffffc000 <__data_begin>
ffff8044:	00006117          	auipc	sp,0x6
ffff8048:	79410113          	addi	sp,sp,1940 # ffffe7d8 <Ptr_Glob>
ffff804c:	00208863          	beq	ra,sp,ffff805c <init_stack>
ffff8050:	0000a023          	sw	zero,0(ra)
ffff8054:	00408093          	addi	ra,ra,4
ffff8058:	fe209ce3          	bne	ra,sp,ffff8050 <clear_bss+0x14>

ffff805c <init_stack>:
ffff805c:	00008117          	auipc	sp,0x8
ffff8060:	fa410113          	addi	sp,sp,-92 # 0 <__stack_top>

ffff8064 <call_main>:
ffff8064:	00000097          	auipc	ra,0x0
ffff8068:	568080e7          	jalr	ra,1384(ra) # ffff85cc <main>
ffff806c:	10500073          	wfi
ffff8070:	ffdff06f          	jal	zero,ffff806c <call_main+0x8>

ffff8074 <_machine_exception_handler>:
ffff8074:	f8410113          	addi	sp,sp,-124
ffff8078:	00112023          	sw	ra,0(sp)
ffff807c:	00212223          	sw	sp,4(sp)
ffff8080:	00312423          	sw	gp,8(sp)
ffff8084:	00412623          	sw	tp,12(sp)
ffff8088:	00512823          	sw	t0,16(sp)
ffff808c:	00612a23          	sw	t1,20(sp)
ffff8090:	00712c23          	sw	t2,24(sp)
ffff8094:	00812e23          	sw	s0,28(sp)
ffff8098:	02912023          	sw	s1,32(sp)
ffff809c:	02a12223          	sw	a0,36(sp)
ffff80a0:	02b12423          	sw	a1,40(sp)
ffff80a4:	02c12623          	sw	a2,44(sp)
ffff80a8:	02d12823          	sw	a3,48(sp)
ffff80ac:	02e12a23          	sw	a4,52(sp)
ffff80b0:	02f12c23          	sw	a5,56(sp)
ffff80b4:	03012e23          	sw	a6,60(sp)
ffff80b8:	05112023          	sw	a7,64(sp)
ffff80bc:	05212223          	sw	s2,68(sp)
ffff80c0:	05312423          	sw	s3,72(sp)
ffff80c4:	05412623          	sw	s4,76(sp)
ffff80c8:	05512823          	sw	s5,80(sp)
ffff80cc:	05612a23          	sw	s6,84(sp)
ffff80d0:	05712c23          	sw	s7,88(sp)
ffff80d4:	05812e23          	sw	s8,92(sp)
ffff80d8:	07912023          	sw	s9,96(sp)
ffff80dc:	07a12223          	sw	s10,100(sp)
ffff80e0:	07b12423          	sw	s11,104(sp)
ffff80e4:	07c12623          	sw	t3,108(sp)
ffff80e8:	07d12823          	sw	t4,112(sp)
ffff80ec:	07e12a23          	sw	t5,116(sp)
ffff80f0:	07f12c23          	sw	t6,120(sp)
ffff80f4:	34202573          	csrrs	a0,mcause,zero
ffff80f8:	341025f3          	csrrs	a1,mepc,zero
ffff80fc:	00010613          	addi	a2,sp,0
ffff8100:	00000097          	auipc	ra,0x0
ffff8104:	4c4080e7          	jalr	ra,1220(ra) # ffff85c4 <exception_handler>

ffff8108 <_machine_exception_return>:
ffff8108:	00012083          	lw	ra,0(sp)
ffff810c:	00812183          	lw	gp,8(sp)
ffff8110:	00c12203          	lw	tp,12(sp)
ffff8114:	01012283          	lw	t0,16(sp)
ffff8118:	01412303          	lw	t1,20(sp)
ffff811c:	01812383          	lw	t2,24(sp)
ffff8120:	01c12403          	lw	s0,28(sp)
ffff8124:	02012483          	lw	s1,32(sp)
ffff8128:	02412503          	lw	a0,36(sp)
ffff812c:	02812583          	lw	a1,40(sp)
ffff8130:	02c12603          	lw	a2,44(sp)
ffff8134:	03012683          	lw	a3,48(sp)
ffff8138:	03412703          	lw	a4,52(sp)
ffff813c:	03812783          	lw	a5,56(sp)
ffff8140:	03c12803          	lw	a6,60(sp)
ffff8144:	04012883          	lw	a7,64(sp)
ffff8148:	04412903          	lw	s2,68(sp)
ffff814c:	04812983          	lw	s3,72(sp)
ffff8150:	04c12a03          	lw	s4,76(sp)
ffff8154:	05012a83          	lw	s5,80(sp)
ffff8158:	05412b03          	lw	s6,84(sp)
ffff815c:	05812b83          	lw	s7,88(sp)
ffff8160:	05c12c03          	lw	s8,92(sp)
ffff8164:	06012c83          	lw	s9,96(sp)
ffff8168:	06412d03          	lw	s10,100(sp)
ffff816c:	06812d83          	lw	s11,104(sp)
ffff8170:	06c12e03          	lw	t3,108(sp)
ffff8174:	07012e83          	lw	t4,112(sp)
ffff8178:	07412f03          	lw	t5,116(sp)
ffff817c:	07812f83          	lw	t6,120(sp)
ffff8180:	07c10113          	addi	sp,sp,124
ffff8184:	30200073          	mret

ffff8188 <uart_initialize>:
ffff8188:	ff010113          	addi	sp,sp,-16
ffff818c:	00a12623          	sw	a0,12(sp)
ffff8190:	00b12423          	sw	a1,8(sp)
ffff8194:	00c12783          	lw	a5,12(sp)
ffff8198:	00812703          	lw	a4,8(sp)
ffff819c:	00e7a023          	sw	a4,0(a5)
ffff81a0:	00000013          	addi	zero,zero,0
ffff81a4:	01010113          	addi	sp,sp,16
ffff81a8:	00008067          	jalr	zero,0(ra)

ffff81ac <uart_set_divisor>:
ffff81ac:	ff010113          	addi	sp,sp,-16
ffff81b0:	00a12623          	sw	a0,12(sp)
ffff81b4:	00b12423          	sw	a1,8(sp)
ffff81b8:	00c12783          	lw	a5,12(sp)
ffff81bc:	0007a783          	lw	a5,0(a5)
ffff81c0:	00c78793          	addi	a5,a5,12
ffff81c4:	00812703          	lw	a4,8(sp)
ffff81c8:	00e7a023          	sw	a4,0(a5)
ffff81cc:	00000013          	addi	zero,zero,0
ffff81d0:	01010113          	addi	sp,sp,16
ffff81d4:	00008067          	jalr	zero,0(ra)

ffff81d8 <uart_tx_fifo_full>:
ffff81d8:	ff010113          	addi	sp,sp,-16
ffff81dc:	00a12623          	sw	a0,12(sp)
ffff81e0:	00c12783          	lw	a5,12(sp)
ffff81e4:	0007a783          	lw	a5,0(a5)
ffff81e8:	00878793          	addi	a5,a5,8
ffff81ec:	0007a783          	lw	a5,0(a5)
ffff81f0:	0087f793          	andi	a5,a5,8
ffff81f4:	00f037b3          	sltu	a5,zero,a5
ffff81f8:	0ff7f793          	andi	a5,a5,255
ffff81fc:	00078513          	addi	a0,a5,0
ffff8200:	01010113          	addi	sp,sp,16
ffff8204:	00008067          	jalr	zero,0(ra)

ffff8208 <uart_tx>:
ffff8208:	ff010113          	addi	sp,sp,-16
ffff820c:	00a12623          	sw	a0,12(sp)
ffff8210:	00058793          	addi	a5,a1,0
ffff8214:	00f105a3          	sb	a5,11(sp)
ffff8218:	00c12783          	lw	a5,12(sp)
ffff821c:	0007a783          	lw	a5,0(a5)
ffff8220:	00b14703          	lbu	a4,11(sp)
ffff8224:	00e7a023          	sw	a4,0(a5)
ffff8228:	00000013          	addi	zero,zero,0
ffff822c:	01010113          	addi	sp,sp,16
ffff8230:	00008067          	jalr	zero,0(ra)

ffff8234 <uart_tx_string>:
ffff8234:	fd010113          	addi	sp,sp,-48
ffff8238:	02112623          	sw	ra,44(sp)
ffff823c:	00a12623          	sw	a0,12(sp)
ffff8240:	00b12423          	sw	a1,8(sp)
ffff8244:	00012e23          	sw	zero,28(sp)
ffff8248:	0480006f          	jal	zero,ffff8290 <uart_tx_string+0x5c>
ffff824c:	00000013          	addi	zero,zero,0
ffff8250:	00c12503          	lw	a0,12(sp)
ffff8254:	00000097          	auipc	ra,0x0
ffff8258:	f84080e7          	jalr	ra,-124(ra) # ffff81d8 <uart_tx_fifo_full>
ffff825c:	00050793          	addi	a5,a0,0
ffff8260:	fe0798e3          	bne	a5,zero,ffff8250 <uart_tx_string+0x1c>
ffff8264:	00812703          	lw	a4,8(sp)
ffff8268:	01c12783          	lw	a5,28(sp)
ffff826c:	00f707b3          	add	a5,a4,a5
ffff8270:	0007c783          	lbu	a5,0(a5)
ffff8274:	00078593          	addi	a1,a5,0
ffff8278:	00c12503          	lw	a0,12(sp)
ffff827c:	00000097          	auipc	ra,0x0
ffff8280:	f8c080e7          	jalr	ra,-116(ra) # ffff8208 <uart_tx>
ffff8284:	01c12783          	lw	a5,28(sp)
ffff8288:	00178793          	addi	a5,a5,1
ffff828c:	00f12e23          	sw	a5,28(sp)
ffff8290:	00812703          	lw	a4,8(sp)
ffff8294:	01c12783          	lw	a5,28(sp)
ffff8298:	00f707b3          	add	a5,a4,a5
ffff829c:	0007c783          	lbu	a5,0(a5)
ffff82a0:	fa0796e3          	bne	a5,zero,ffff824c <uart_tx_string+0x18>
ffff82a4:	00000013          	addi	zero,zero,0
ffff82a8:	00000013          	addi	zero,zero,0
ffff82ac:	02c12083          	lw	ra,44(sp)
ffff82b0:	03010113          	addi	sp,sp,48
ffff82b4:	00008067          	jalr	zero,0(ra)

ffff82b8 <uart_baud2divisor>:
ffff82b8:	fe010113          	addi	sp,sp,-32
ffff82bc:	00112e23          	sw	ra,28(sp)
ffff82c0:	00a12623          	sw	a0,12(sp)
ffff82c4:	00b12423          	sw	a1,8(sp)
ffff82c8:	00c12783          	lw	a5,12(sp)
ffff82cc:	00479793          	slli	a5,a5,0x4
ffff82d0:	00078593          	addi	a1,a5,0
ffff82d4:	00812503          	lw	a0,8(sp)
ffff82d8:	00002097          	auipc	ra,0x2
ffff82dc:	ecc080e7          	jalr	ra,-308(ra) # ffffa1a4 <__hidden___udivsi3>
ffff82e0:	00050793          	addi	a5,a0,0
ffff82e4:	fff78793          	addi	a5,a5,-1
ffff82e8:	00078513          	addi	a0,a5,0
ffff82ec:	01c12083          	lw	ra,28(sp)
ffff82f0:	02010113          	addi	sp,sp,32
ffff82f4:	00008067          	jalr	zero,0(ra)

ffff82f8 <timer_initialize>:
ffff82f8:	ff010113          	addi	sp,sp,-16
ffff82fc:	00a12623          	sw	a0,12(sp)
ffff8300:	00b12423          	sw	a1,8(sp)
ffff8304:	00c12783          	lw	a5,12(sp)
ffff8308:	00812703          	lw	a4,8(sp)
ffff830c:	00e7a023          	sw	a4,0(a5)
ffff8310:	00000013          	addi	zero,zero,0
ffff8314:	01010113          	addi	sp,sp,16
ffff8318:	00008067          	jalr	zero,0(ra)

ffff831c <timer_reset>:
ffff831c:	ff010113          	addi	sp,sp,-16
ffff8320:	00a12623          	sw	a0,12(sp)
ffff8324:	00c12783          	lw	a5,12(sp)
ffff8328:	0007a783          	lw	a5,0(a5)
ffff832c:	00200713          	addi	a4,zero,2
ffff8330:	00e7a023          	sw	a4,0(a5)
ffff8334:	00000013          	addi	zero,zero,0
ffff8338:	01010113          	addi	sp,sp,16
ffff833c:	00008067          	jalr	zero,0(ra)

ffff8340 <timer_start>:
ffff8340:	ff010113          	addi	sp,sp,-16
ffff8344:	00a12623          	sw	a0,12(sp)
ffff8348:	00c12783          	lw	a5,12(sp)
ffff834c:	0007a783          	lw	a5,0(a5)
ffff8350:	00300713          	addi	a4,zero,3
ffff8354:	00e7a023          	sw	a4,0(a5)
ffff8358:	00000013          	addi	zero,zero,0
ffff835c:	01010113          	addi	sp,sp,16
ffff8360:	00008067          	jalr	zero,0(ra)

ffff8364 <timer_stop>:
ffff8364:	ff010113          	addi	sp,sp,-16
ffff8368:	00a12623          	sw	a0,12(sp)
ffff836c:	00c12783          	lw	a5,12(sp)
ffff8370:	0007a783          	lw	a5,0(a5)
ffff8374:	0007a023          	sw	zero,0(a5)
ffff8378:	00000013          	addi	zero,zero,0
ffff837c:	01010113          	addi	sp,sp,16
ffff8380:	00008067          	jalr	zero,0(ra)

ffff8384 <timer_get_count>:
ffff8384:	ff010113          	addi	sp,sp,-16
ffff8388:	00a12623          	sw	a0,12(sp)
ffff838c:	00c12783          	lw	a5,12(sp)
ffff8390:	0007a783          	lw	a5,0(a5)
ffff8394:	00878793          	addi	a5,a5,8
ffff8398:	0007a783          	lw	a5,0(a5)
ffff839c:	00078513          	addi	a0,a5,0
ffff83a0:	01010113          	addi	sp,sp,16
ffff83a4:	00008067          	jalr	zero,0(ra)

ffff83a8 <int2string>:
ffff83a8:	fd010113          	addi	sp,sp,-48
ffff83ac:	02112623          	sw	ra,44(sp)
ffff83b0:	00a12623          	sw	a0,12(sp)
ffff83b4:	00b12423          	sw	a1,8(sp)
ffff83b8:	00100793          	addi	a5,zero,1
ffff83bc:	00f10fa3          	sb	a5,31(sp)
ffff83c0:	00c12783          	lw	a5,12(sp)
ffff83c4:	02079063          	bne	a5,zero,ffff83e4 <int2string+0x3c>
ffff83c8:	00812783          	lw	a5,8(sp)
ffff83cc:	03000713          	addi	a4,zero,48
ffff83d0:	00e78023          	sb	a4,0(a5)
ffff83d4:	00812783          	lw	a5,8(sp)
ffff83d8:	00178793          	addi	a5,a5,1
ffff83dc:	00078023          	sb	zero,0(a5)
ffff83e0:	1100006f          	jal	zero,ffff84f0 <int2string+0x148>
ffff83e4:	00c12783          	lw	a5,12(sp)
ffff83e8:	0207d263          	bge	a5,zero,ffff840c <int2string+0x64>
ffff83ec:	00c12783          	lw	a5,12(sp)
ffff83f0:	40f007b3          	sub	a5,zero,a5
ffff83f4:	00f12623          	sw	a5,12(sp)
ffff83f8:	00812783          	lw	a5,8(sp)
ffff83fc:	00178713          	addi	a4,a5,1
ffff8400:	00e12423          	sw	a4,8(sp)
ffff8404:	02d00713          	addi	a4,zero,45
ffff8408:	00e78023          	sb	a4,0(a5)
ffff840c:	3b9ad7b7          	lui	a5,0x3b9ad
ffff8410:	a0078793          	addi	a5,a5,-1536 # 3b9aca00 <__stack_top+0x3b9aca00>
ffff8414:	00f12c23          	sw	a5,24(sp)
ffff8418:	0c80006f          	jal	zero,ffff84e0 <int2string+0x138>
ffff841c:	01812583          	lw	a1,24(sp)
ffff8420:	00c12503          	lw	a0,12(sp)
ffff8424:	00002097          	auipc	ra,0x2
ffff8428:	d78080e7          	jalr	ra,-648(ra) # ffffa19c <__divsi3>
ffff842c:	00050793          	addi	a5,a0,0
ffff8430:	02079663          	bne	a5,zero,ffff845c <int2string+0xb4>
ffff8434:	01f14783          	lbu	a5,31(sp)
ffff8438:	0017c793          	xori	a5,a5,1
ffff843c:	0ff7f793          	andi	a5,a5,255
ffff8440:	00078e63          	beq	a5,zero,ffff845c <int2string+0xb4>
ffff8444:	00812783          	lw	a5,8(sp)
ffff8448:	00178713          	addi	a4,a5,1
ffff844c:	00e12423          	sw	a4,8(sp)
ffff8450:	03000713          	addi	a4,zero,48
ffff8454:	00e78023          	sb	a4,0(a5)
ffff8458:	06c0006f          	jal	zero,ffff84c4 <int2string+0x11c>
ffff845c:	01812583          	lw	a1,24(sp)
ffff8460:	00c12503          	lw	a0,12(sp)
ffff8464:	00002097          	auipc	ra,0x2
ffff8468:	d38080e7          	jalr	ra,-712(ra) # ffffa19c <__divsi3>
ffff846c:	00050793          	addi	a5,a0,0
ffff8470:	04078a63          	beq	a5,zero,ffff84c4 <int2string+0x11c>
ffff8474:	01812583          	lw	a1,24(sp)
ffff8478:	00c12503          	lw	a0,12(sp)
ffff847c:	00002097          	auipc	ra,0x2
ffff8480:	d20080e7          	jalr	ra,-736(ra) # ffffa19c <__divsi3>
ffff8484:	00050793          	addi	a5,a0,0
ffff8488:	0ff7f713          	andi	a4,a5,255
ffff848c:	00812783          	lw	a5,8(sp)
ffff8490:	00178693          	addi	a3,a5,1
ffff8494:	00d12423          	sw	a3,8(sp)
ffff8498:	03070713          	addi	a4,a4,48
ffff849c:	0ff77713          	andi	a4,a4,255
ffff84a0:	00e78023          	sb	a4,0(a5)
ffff84a4:	00c12783          	lw	a5,12(sp)
ffff84a8:	01812583          	lw	a1,24(sp)
ffff84ac:	00078513          	addi	a0,a5,0
ffff84b0:	00002097          	auipc	ra,0x2
ffff84b4:	d70080e7          	jalr	ra,-656(ra) # ffffa220 <__modsi3>
ffff84b8:	00050793          	addi	a5,a0,0
ffff84bc:	00f12623          	sw	a5,12(sp)
ffff84c0:	00010fa3          	sb	zero,31(sp)
ffff84c4:	01812783          	lw	a5,24(sp)
ffff84c8:	00a00593          	addi	a1,zero,10
ffff84cc:	00078513          	addi	a0,a5,0
ffff84d0:	00002097          	auipc	ra,0x2
ffff84d4:	ccc080e7          	jalr	ra,-820(ra) # ffffa19c <__divsi3>
ffff84d8:	00050793          	addi	a5,a0,0
ffff84dc:	00f12c23          	sw	a5,24(sp)
ffff84e0:	01812783          	lw	a5,24(sp)
ffff84e4:	f2f04ce3          	blt	zero,a5,ffff841c <int2string+0x74>
ffff84e8:	00812783          	lw	a5,8(sp)
ffff84ec:	00078023          	sb	zero,0(a5)
ffff84f0:	02c12083          	lw	ra,44(sp)
ffff84f4:	03010113          	addi	sp,sp,48
ffff84f8:	00008067          	jalr	zero,0(ra)

ffff84fc <print_s>:
ffff84fc:	fe010113          	addi	sp,sp,-32
ffff8500:	00112e23          	sw	ra,28(sp)
ffff8504:	00a12623          	sw	a0,12(sp)
ffff8508:	00b12423          	sw	a1,8(sp)
ffff850c:	00812583          	lw	a1,8(sp)
ffff8510:	00c12503          	lw	a0,12(sp)
ffff8514:	00000097          	auipc	ra,0x0
ffff8518:	d20080e7          	jalr	ra,-736(ra) # ffff8234 <uart_tx_string>
ffff851c:	00000013          	addi	zero,zero,0
ffff8520:	01c12083          	lw	ra,28(sp)
ffff8524:	02010113          	addi	sp,sp,32
ffff8528:	00008067          	jalr	zero,0(ra)

ffff852c <print_i>:
ffff852c:	fd010113          	addi	sp,sp,-48
ffff8530:	02112623          	sw	ra,44(sp)
ffff8534:	00a12623          	sw	a0,12(sp)
ffff8538:	00b12423          	sw	a1,8(sp)
ffff853c:	01410793          	addi	a5,sp,20
ffff8540:	00078593          	addi	a1,a5,0
ffff8544:	00812503          	lw	a0,8(sp)
ffff8548:	00000097          	auipc	ra,0x0
ffff854c:	e60080e7          	jalr	ra,-416(ra) # ffff83a8 <int2string>
ffff8550:	01410793          	addi	a5,sp,20
ffff8554:	00078593          	addi	a1,a5,0
ffff8558:	00c12503          	lw	a0,12(sp)
ffff855c:	00000097          	auipc	ra,0x0
ffff8560:	cd8080e7          	jalr	ra,-808(ra) # ffff8234 <uart_tx_string>
ffff8564:	00000013          	addi	zero,zero,0
ffff8568:	02c12083          	lw	ra,44(sp)
ffff856c:	03010113          	addi	sp,sp,48
ffff8570:	00008067          	jalr	zero,0(ra)

ffff8574 <print_c>:
ffff8574:	fe010113          	addi	sp,sp,-32
ffff8578:	00112e23          	sw	ra,28(sp)
ffff857c:	00a12623          	sw	a0,12(sp)
ffff8580:	00058793          	addi	a5,a1,0
ffff8584:	00f105a3          	sb	a5,11(sp)
ffff8588:	00000013          	addi	zero,zero,0
ffff858c:	00c12503          	lw	a0,12(sp)
ffff8590:	00000097          	auipc	ra,0x0
ffff8594:	c48080e7          	jalr	ra,-952(ra) # ffff81d8 <uart_tx_fifo_full>
ffff8598:	00050793          	addi	a5,a0,0
ffff859c:	fe0798e3          	bne	a5,zero,ffff858c <print_c+0x18>
ffff85a0:	00b14783          	lbu	a5,11(sp)
ffff85a4:	00078593          	addi	a1,a5,0
ffff85a8:	00c12503          	lw	a0,12(sp)
ffff85ac:	00000097          	auipc	ra,0x0
ffff85b0:	c5c080e7          	jalr	ra,-932(ra) # ffff8208 <uart_tx>
ffff85b4:	00000013          	addi	zero,zero,0
ffff85b8:	01c12083          	lw	ra,28(sp)
ffff85bc:	02010113          	addi	sp,sp,32
ffff85c0:	00008067          	jalr	zero,0(ra)

ffff85c4 <exception_handler>:
ffff85c4:	00000013          	addi	zero,zero,0
ffff85c8:	00008067          	jalr	zero,0(ra)

ffff85cc <main>:
ffff85cc:	f3010113          	addi	sp,sp,-208
ffff85d0:	0c112623          	sw	ra,204(sp)
ffff85d4:	c00005b7          	lui	a1,0xc0000
ffff85d8:	ffffe7b7          	lui	a5,0xffffe
ffff85dc:	7f078513          	addi	a0,a5,2032 # ffffe7f0 <timer0>
ffff85e0:	00000097          	auipc	ra,0x0
ffff85e4:	d18080e7          	jalr	ra,-744(ra) # ffff82f8 <timer_initialize>
ffff85e8:	ffffe7b7          	lui	a5,0xffffe
ffff85ec:	7f078513          	addi	a0,a5,2032 # ffffe7f0 <timer0>
ffff85f0:	00000097          	auipc	ra,0x0
ffff85f4:	d2c080e7          	jalr	ra,-724(ra) # ffff831c <timer_reset>
ffff85f8:	c00025b7          	lui	a1,0xc0002
ffff85fc:	fffff7b7          	lui	a5,0xfffff
ffff8600:	80878513          	addi	a0,a5,-2040 # ffffe808 <uart0>
ffff8604:	00000097          	auipc	ra,0x0
ffff8608:	b84080e7          	jalr	ra,-1148(ra) # ffff8188 <uart_initialize>
ffff860c:	02faf7b7          	lui	a5,0x2faf
ffff8610:	08078593          	addi	a1,a5,128 # 2faf080 <__stack_top+0x2faf080>
ffff8614:	0001c7b7          	lui	a5,0x1c
ffff8618:	20078513          	addi	a0,a5,512 # 1c200 <__stack_top+0x1c200>
ffff861c:	00000097          	auipc	ra,0x0
ffff8620:	c9c080e7          	jalr	ra,-868(ra) # ffff82b8 <uart_baud2divisor>
ffff8624:	00050793          	addi	a5,a0,0
ffff8628:	00078593          	addi	a1,a5,0
ffff862c:	fffff7b7          	lui	a5,0xfffff
ffff8630:	80878513          	addi	a0,a5,-2040 # ffffe808 <uart0>
ffff8634:	00000097          	auipc	ra,0x0
ffff8638:	b78080e7          	jalr	ra,-1160(ra) # ffff81ac <uart_set_divisor>
ffff863c:	ffffe7b7          	lui	a5,0xffffe
ffff8640:	03010713          	addi	a4,sp,48
ffff8644:	7ce7ae23          	sw	a4,2012(a5) # ffffe7dc <Next_Ptr_Glob>
ffff8648:	ffffe7b7          	lui	a5,0xffffe
ffff864c:	00010713          	addi	a4,sp,0
ffff8650:	7ce7ac23          	sw	a4,2008(a5) # ffffe7d8 <Ptr_Glob>
ffff8654:	ffffe7b7          	lui	a5,0xffffe
ffff8658:	7d87a783          	lw	a5,2008(a5) # ffffe7d8 <Ptr_Glob>
ffff865c:	ffffe737          	lui	a4,0xffffe
ffff8660:	7dc72703          	lw	a4,2012(a4) # ffffe7dc <Next_Ptr_Glob>
ffff8664:	00e7a023          	sw	a4,0(a5)
ffff8668:	ffffe7b7          	lui	a5,0xffffe
ffff866c:	7d87a783          	lw	a5,2008(a5) # ffffe7d8 <Ptr_Glob>
ffff8670:	0007a223          	sw	zero,4(a5)
ffff8674:	ffffe7b7          	lui	a5,0xffffe
ffff8678:	7d87a783          	lw	a5,2008(a5) # ffffe7d8 <Ptr_Glob>
ffff867c:	00200713          	addi	a4,zero,2
ffff8680:	00e7a423          	sw	a4,8(a5)
ffff8684:	ffffe7b7          	lui	a5,0xffffe
ffff8688:	7d87a783          	lw	a5,2008(a5) # ffffe7d8 <Ptr_Glob>
ffff868c:	02800713          	addi	a4,zero,40
ffff8690:	00e7a623          	sw	a4,12(a5)
ffff8694:	ffffe7b7          	lui	a5,0xffffe
ffff8698:	7d87a783          	lw	a5,2008(a5) # ffffe7d8 <Ptr_Glob>
ffff869c:	01078713          	addi	a4,a5,16
ffff86a0:	ffffa7b7          	lui	a5,0xffffa
ffff86a4:	4c878593          	addi	a1,a5,1224 # ffffa4c8 <__text_end>
ffff86a8:	00070513          	addi	a0,a4,0
ffff86ac:	00002097          	auipc	ra,0x2
ffff86b0:	bf0080e7          	jalr	ra,-1040(ra) # ffffa29c <strcpy>
ffff86b4:	08010713          	addi	a4,sp,128
ffff86b8:	ffffa7b7          	lui	a5,0xffffa
ffff86bc:	4e878593          	addi	a1,a5,1256 # ffffa4e8 <__text_end+0x20>
ffff86c0:	00070513          	addi	a0,a4,0
ffff86c4:	00002097          	auipc	ra,0x2
ffff86c8:	bd8080e7          	jalr	ra,-1064(ra) # ffffa29c <strcpy>
ffff86cc:	ffffc7b7          	lui	a5,0xffffc
ffff86d0:	0c878793          	addi	a5,a5,200 # ffffc0c8 <Arr_2_Glob>
ffff86d4:	00a00713          	addi	a4,zero,10
ffff86d8:	64e7ae23          	sw	a4,1628(a5)
ffff86dc:	ffffa7b7          	lui	a5,0xffffa
ffff86e0:	50878593          	addi	a1,a5,1288 # ffffa508 <__text_end+0x40>
ffff86e4:	fffff7b7          	lui	a5,0xfffff
ffff86e8:	80878513          	addi	a0,a5,-2040 # ffffe808 <uart0>
ffff86ec:	00000097          	auipc	ra,0x0
ffff86f0:	e10080e7          	jalr	ra,-496(ra) # ffff84fc <print_s>
ffff86f4:	ffffa7b7          	lui	a5,0xffffa
ffff86f8:	50c78593          	addi	a1,a5,1292 # ffffa50c <__text_end+0x44>
ffff86fc:	fffff7b7          	lui	a5,0xfffff
ffff8700:	80878513          	addi	a0,a5,-2040 # ffffe808 <uart0>
ffff8704:	00000097          	auipc	ra,0x0
ffff8708:	df8080e7          	jalr	ra,-520(ra) # ffff84fc <print_s>
ffff870c:	ffffa7b7          	lui	a5,0xffffa
ffff8710:	50878593          	addi	a1,a5,1288 # ffffa508 <__text_end+0x40>
ffff8714:	fffff7b7          	lui	a5,0xfffff
ffff8718:	80878513          	addi	a0,a5,-2040 # ffffe808 <uart0>
ffff871c:	00000097          	auipc	ra,0x0
ffff8720:	de0080e7          	jalr	ra,-544(ra) # ffff84fc <print_s>
ffff8724:	ffffe7b7          	lui	a5,0xffffe
ffff8728:	7ec7a783          	lw	a5,2028(a5) # ffffe7ec <Reg>
ffff872c:	02078c63          	beq	a5,zero,ffff8764 <main+0x198>
ffff8730:	ffffa7b7          	lui	a5,0xffffa
ffff8734:	54078593          	addi	a1,a5,1344 # ffffa540 <__text_end+0x78>
ffff8738:	fffff7b7          	lui	a5,0xfffff
ffff873c:	80878513          	addi	a0,a5,-2040 # ffffe808 <uart0>
ffff8740:	00000097          	auipc	ra,0x0
ffff8744:	dbc080e7          	jalr	ra,-580(ra) # ffff84fc <print_s>
ffff8748:	ffffa7b7          	lui	a5,0xffffa
ffff874c:	50878593          	addi	a1,a5,1288 # ffffa508 <__text_end+0x40>
ffff8750:	fffff7b7          	lui	a5,0xfffff
ffff8754:	80878513          	addi	a0,a5,-2040 # ffffe808 <uart0>
ffff8758:	00000097          	auipc	ra,0x0
ffff875c:	da4080e7          	jalr	ra,-604(ra) # ffff84fc <print_s>
ffff8760:	0340006f          	jal	zero,ffff8794 <main+0x1c8>
ffff8764:	ffffa7b7          	lui	a5,0xffffa
ffff8768:	57078593          	addi	a1,a5,1392 # ffffa570 <__text_end+0xa8>
ffff876c:	fffff7b7          	lui	a5,0xfffff
ffff8770:	80878513          	addi	a0,a5,-2040 # ffffe808 <uart0>
ffff8774:	00000097          	auipc	ra,0x0
ffff8778:	d88080e7          	jalr	ra,-632(ra) # ffff84fc <print_s>
ffff877c:	ffffa7b7          	lui	a5,0xffffa
ffff8780:	50878593          	addi	a1,a5,1288 # ffffa508 <__text_end+0x40>
ffff8784:	fffff7b7          	lui	a5,0xfffff
ffff8788:	80878513          	addi	a0,a5,-2040 # ffffe808 <uart0>
ffff878c:	00000097          	auipc	ra,0x0
ffff8790:	d70080e7          	jalr	ra,-656(ra) # ffff84fc <print_s>
ffff8794:	000317b7          	lui	a5,0x31
ffff8798:	d4078793          	addi	a5,a5,-704 # 30d40 <__stack_top+0x30d40>
ffff879c:	0af12823          	sw	a5,176(sp)
ffff87a0:	ffffa7b7          	lui	a5,0xffffa
ffff87a4:	5a078593          	addi	a1,a5,1440 # ffffa5a0 <__text_end+0xd8>
ffff87a8:	fffff7b7          	lui	a5,0xfffff
ffff87ac:	80878513          	addi	a0,a5,-2040 # ffffe808 <uart0>
ffff87b0:	00000097          	auipc	ra,0x0
ffff87b4:	d4c080e7          	jalr	ra,-692(ra) # ffff84fc <print_s>
ffff87b8:	0b012583          	lw	a1,176(sp)
ffff87bc:	fffff7b7          	lui	a5,0xfffff
ffff87c0:	80878513          	addi	a0,a5,-2040 # ffffe808 <uart0>
ffff87c4:	00000097          	auipc	ra,0x0
ffff87c8:	d68080e7          	jalr	ra,-664(ra) # ffff852c <print_i>
ffff87cc:	ffffa7b7          	lui	a5,0xffffa
ffff87d0:	5b478593          	addi	a1,a5,1460 # ffffa5b4 <__text_end+0xec>
ffff87d4:	fffff7b7          	lui	a5,0xfffff
ffff87d8:	80878513          	addi	a0,a5,-2040 # ffffe808 <uart0>
ffff87dc:	00000097          	auipc	ra,0x0
ffff87e0:	d20080e7          	jalr	ra,-736(ra) # ffff84fc <print_s>
ffff87e4:	ffffe7b7          	lui	a5,0xffffe
ffff87e8:	7f078513          	addi	a0,a5,2032 # ffffe7f0 <timer0>
ffff87ec:	00000097          	auipc	ra,0x0
ffff87f0:	b54080e7          	jalr	ra,-1196(ra) # ffff8340 <timer_start>
ffff87f4:	00100793          	addi	a5,zero,1
ffff87f8:	0af12a23          	sw	a5,180(sp)
ffff87fc:	2040006f          	jal	zero,ffff8a00 <main+0x434>
ffff8800:	00001097          	auipc	ra,0x1
ffff8804:	37c080e7          	jalr	ra,892(ra) # ffff9b7c <Proc_5>
ffff8808:	00001097          	auipc	ra,0x1
ffff880c:	328080e7          	jalr	ra,808(ra) # ffff9b30 <Proc_4>
ffff8810:	00200793          	addi	a5,zero,2
ffff8814:	0af12423          	sw	a5,168(sp)
ffff8818:	00300793          	addi	a5,zero,3
ffff881c:	0af12e23          	sw	a5,188(sp)
ffff8820:	06010713          	addi	a4,sp,96
ffff8824:	ffffa7b7          	lui	a5,0xffffa
ffff8828:	5d078593          	addi	a1,a5,1488 # ffffa5d0 <__text_end+0x108>
ffff882c:	00070513          	addi	a0,a4,0
ffff8830:	00002097          	auipc	ra,0x2
ffff8834:	a6c080e7          	jalr	ra,-1428(ra) # ffffa29c <strcpy>
ffff8838:	00100793          	addi	a5,zero,1
ffff883c:	0af12023          	sw	a5,160(sp)
ffff8840:	06010713          	addi	a4,sp,96
ffff8844:	08010793          	addi	a5,sp,128
ffff8848:	00070593          	addi	a1,a4,0
ffff884c:	00078513          	addi	a0,a5,0
ffff8850:	00001097          	auipc	ra,0x1
ffff8854:	67c080e7          	jalr	ra,1660(ra) # ffff9ecc <Func_2>
ffff8858:	00050793          	addi	a5,a0,0
ffff885c:	0017b793          	sltiu	a5,a5,1
ffff8860:	0ff7f793          	andi	a5,a5,255
ffff8864:	00078713          	addi	a4,a5,0
ffff8868:	ffffe7b7          	lui	a5,0xffffe
ffff886c:	7ee7a223          	sw	a4,2020(a5) # ffffe7e4 <Bool_Glob>
ffff8870:	0480006f          	jal	zero,ffff88b8 <main+0x2ec>
ffff8874:	0a812703          	lw	a4,168(sp)
ffff8878:	00070793          	addi	a5,a4,0
ffff887c:	00279793          	slli	a5,a5,0x2
ffff8880:	00e78733          	add	a4,a5,a4
ffff8884:	0bc12783          	lw	a5,188(sp)
ffff8888:	40f707b3          	sub	a5,a4,a5
ffff888c:	0af12223          	sw	a5,164(sp)
ffff8890:	0a812783          	lw	a5,168(sp)
ffff8894:	0a410713          	addi	a4,sp,164
ffff8898:	00070613          	addi	a2,a4,0
ffff889c:	0bc12583          	lw	a1,188(sp)
ffff88a0:	00078513          	addi	a0,a5,0
ffff88a4:	00001097          	auipc	ra,0x1
ffff88a8:	3c4080e7          	jalr	ra,964(ra) # ffff9c68 <Proc_7>
ffff88ac:	0a812783          	lw	a5,168(sp)
ffff88b0:	00178793          	addi	a5,a5,1
ffff88b4:	0af12423          	sw	a5,168(sp)
ffff88b8:	0a812783          	lw	a5,168(sp)
ffff88bc:	0bc12703          	lw	a4,188(sp)
ffff88c0:	fae7cae3          	blt	a5,a4,ffff8874 <main+0x2a8>
ffff88c4:	0a812783          	lw	a5,168(sp)
ffff88c8:	0a412703          	lw	a4,164(sp)
ffff88cc:	00070693          	addi	a3,a4,0
ffff88d0:	00078613          	addi	a2,a5,0
ffff88d4:	ffffc7b7          	lui	a5,0xffffc
ffff88d8:	0c878593          	addi	a1,a5,200 # ffffc0c8 <Arr_2_Glob>
ffff88dc:	ffffc7b7          	lui	a5,0xffffc
ffff88e0:	00078513          	addi	a0,a5,0 # ffffc000 <__data_begin>
ffff88e4:	00001097          	auipc	ra,0x1
ffff88e8:	3c0080e7          	jalr	ra,960(ra) # ffff9ca4 <Proc_8>
ffff88ec:	ffffe7b7          	lui	a5,0xffffe
ffff88f0:	7d87a783          	lw	a5,2008(a5) # ffffe7d8 <Ptr_Glob>
ffff88f4:	00078513          	addi	a0,a5,0
ffff88f8:	00001097          	auipc	ra,0x1
ffff88fc:	fb8080e7          	jalr	ra,-72(ra) # ffff98b0 <Proc_1>
ffff8900:	04100793          	addi	a5,zero,65
ffff8904:	0af10da3          	sb	a5,187(sp)
ffff8908:	0700006f          	jal	zero,ffff8978 <main+0x3ac>
ffff890c:	0bb14783          	lbu	a5,187(sp)
ffff8910:	04300593          	addi	a1,zero,67
ffff8914:	00078513          	addi	a0,a5,0
ffff8918:	00001097          	auipc	ra,0x1
ffff891c:	55c080e7          	jalr	ra,1372(ra) # ffff9e74 <Func_1>
ffff8920:	00050713          	addi	a4,a0,0
ffff8924:	0a012783          	lw	a5,160(sp)
ffff8928:	04f71263          	bne	a4,a5,ffff896c <main+0x3a0>
ffff892c:	0a010793          	addi	a5,sp,160
ffff8930:	00078593          	addi	a1,a5,0
ffff8934:	00000513          	addi	a0,zero,0
ffff8938:	00001097          	auipc	ra,0x1
ffff893c:	260080e7          	jalr	ra,608(ra) # ffff9b98 <Proc_6>
ffff8940:	06010713          	addi	a4,sp,96
ffff8944:	ffffa7b7          	lui	a5,0xffffa
ffff8948:	5f078593          	addi	a1,a5,1520 # ffffa5f0 <__text_end+0x128>
ffff894c:	00070513          	addi	a0,a4,0
ffff8950:	00002097          	auipc	ra,0x2
ffff8954:	94c080e7          	jalr	ra,-1716(ra) # ffffa29c <strcpy>
ffff8958:	0b412783          	lw	a5,180(sp)
ffff895c:	0af12e23          	sw	a5,188(sp)
ffff8960:	ffffe7b7          	lui	a5,0xffffe
ffff8964:	0b412703          	lw	a4,180(sp)
ffff8968:	7ee7a023          	sw	a4,2016(a5) # ffffe7e0 <Int_Glob>
ffff896c:	0bb14783          	lbu	a5,187(sp)
ffff8970:	00178793          	addi	a5,a5,1
ffff8974:	0af10da3          	sb	a5,187(sp)
ffff8978:	ffffe7b7          	lui	a5,0xffffe
ffff897c:	7e97c783          	lbu	a5,2025(a5) # ffffe7e9 <Ch_2_Glob>
ffff8980:	0bb14703          	lbu	a4,187(sp)
ffff8984:	f8e7f4e3          	bgeu	a5,a4,ffff890c <main+0x340>
ffff8988:	0a812783          	lw	a5,168(sp)
ffff898c:	00078593          	addi	a1,a5,0
ffff8990:	0bc12503          	lw	a0,188(sp)
ffff8994:	00001097          	auipc	ra,0x1
ffff8998:	7e4080e7          	jalr	ra,2020(ra) # ffffa178 <__mulsi3>
ffff899c:	00050793          	addi	a5,a0,0
ffff89a0:	0af12e23          	sw	a5,188(sp)
ffff89a4:	0a412783          	lw	a5,164(sp)
ffff89a8:	00078593          	addi	a1,a5,0
ffff89ac:	0bc12503          	lw	a0,188(sp)
ffff89b0:	00001097          	auipc	ra,0x1
ffff89b4:	7ec080e7          	jalr	ra,2028(ra) # ffffa19c <__divsi3>
ffff89b8:	00050793          	addi	a5,a0,0
ffff89bc:	0af12423          	sw	a5,168(sp)
ffff89c0:	0a412783          	lw	a5,164(sp)
ffff89c4:	0bc12703          	lw	a4,188(sp)
ffff89c8:	40f70733          	sub	a4,a4,a5
ffff89cc:	00070793          	addi	a5,a4,0
ffff89d0:	00379793          	slli	a5,a5,0x3
ffff89d4:	40e78733          	sub	a4,a5,a4
ffff89d8:	0a812783          	lw	a5,168(sp)
ffff89dc:	40f707b3          	sub	a5,a4,a5
ffff89e0:	0af12e23          	sw	a5,188(sp)
ffff89e4:	0a810793          	addi	a5,sp,168
ffff89e8:	00078513          	addi	a0,a5,0
ffff89ec:	00001097          	auipc	ra,0x1
ffff89f0:	078080e7          	jalr	ra,120(ra) # ffff9a64 <Proc_2>
ffff89f4:	0b412783          	lw	a5,180(sp)
ffff89f8:	00178793          	addi	a5,a5,1
ffff89fc:	0af12a23          	sw	a5,180(sp)
ffff8a00:	0b412703          	lw	a4,180(sp)
ffff8a04:	0b012783          	lw	a5,176(sp)
ffff8a08:	dee7dce3          	bge	a5,a4,ffff8800 <main+0x234>
ffff8a0c:	ffffe7b7          	lui	a5,0xffffe
ffff8a10:	7f078513          	addi	a0,a5,2032 # ffffe7f0 <timer0>
ffff8a14:	00000097          	auipc	ra,0x0
ffff8a18:	950080e7          	jalr	ra,-1712(ra) # ffff8364 <timer_stop>
ffff8a1c:	ffffe7b7          	lui	a5,0xffffe
ffff8a20:	7f078513          	addi	a0,a5,2032 # ffffe7f0 <timer0>
ffff8a24:	00000097          	auipc	ra,0x0
ffff8a28:	960080e7          	jalr	ra,-1696(ra) # ffff8384 <timer_get_count>
ffff8a2c:	00050793          	addi	a5,a0,0
ffff8a30:	00078713          	addi	a4,a5,0
ffff8a34:	ffffe7b7          	lui	a5,0xffffe
ffff8a38:	7ee7ac23          	sw	a4,2040(a5) # ffffe7f8 <End_Time>
ffff8a3c:	ffffa7b7          	lui	a5,0xffffa
ffff8a40:	61078593          	addi	a1,a5,1552 # ffffa610 <__text_end+0x148>
ffff8a44:	fffff7b7          	lui	a5,0xfffff
ffff8a48:	80878513          	addi	a0,a5,-2040 # ffffe808 <uart0>
ffff8a4c:	00000097          	auipc	ra,0x0
ffff8a50:	ab0080e7          	jalr	ra,-1360(ra) # ffff84fc <print_s>
ffff8a54:	ffffa7b7          	lui	a5,0xffffa
ffff8a58:	50878593          	addi	a1,a5,1288 # ffffa508 <__text_end+0x40>
ffff8a5c:	fffff7b7          	lui	a5,0xfffff
ffff8a60:	80878513          	addi	a0,a5,-2040 # ffffe808 <uart0>
ffff8a64:	00000097          	auipc	ra,0x0
ffff8a68:	a98080e7          	jalr	ra,-1384(ra) # ffff84fc <print_s>
ffff8a6c:	ffffa7b7          	lui	a5,0xffffa
ffff8a70:	62478593          	addi	a1,a5,1572 # ffffa624 <__text_end+0x15c>
ffff8a74:	fffff7b7          	lui	a5,0xfffff
ffff8a78:	80878513          	addi	a0,a5,-2040 # ffffe808 <uart0>
ffff8a7c:	00000097          	auipc	ra,0x0
ffff8a80:	a80080e7          	jalr	ra,-1408(ra) # ffff84fc <print_s>
ffff8a84:	ffffa7b7          	lui	a5,0xffffa
ffff8a88:	50878593          	addi	a1,a5,1288 # ffffa508 <__text_end+0x40>
ffff8a8c:	fffff7b7          	lui	a5,0xfffff
ffff8a90:	80878513          	addi	a0,a5,-2040 # ffffe808 <uart0>
ffff8a94:	00000097          	auipc	ra,0x0
ffff8a98:	a68080e7          	jalr	ra,-1432(ra) # ffff84fc <print_s>
ffff8a9c:	ffffa7b7          	lui	a5,0xffffa
ffff8aa0:	65c78593          	addi	a1,a5,1628 # ffffa65c <__text_end+0x194>
ffff8aa4:	fffff7b7          	lui	a5,0xfffff
ffff8aa8:	80878513          	addi	a0,a5,-2040 # ffffe808 <uart0>
ffff8aac:	00000097          	auipc	ra,0x0
ffff8ab0:	a50080e7          	jalr	ra,-1456(ra) # ffff84fc <print_s>
ffff8ab4:	ffffe7b7          	lui	a5,0xffffe
ffff8ab8:	7e07a783          	lw	a5,2016(a5) # ffffe7e0 <Int_Glob>
ffff8abc:	00078593          	addi	a1,a5,0
ffff8ac0:	fffff7b7          	lui	a5,0xfffff
ffff8ac4:	80878513          	addi	a0,a5,-2040 # ffffe808 <uart0>
ffff8ac8:	00000097          	auipc	ra,0x0
ffff8acc:	a64080e7          	jalr	ra,-1436(ra) # ffff852c <print_i>
ffff8ad0:	ffffa7b7          	lui	a5,0xffffa
ffff8ad4:	50878593          	addi	a1,a5,1288 # ffffa508 <__text_end+0x40>
ffff8ad8:	fffff7b7          	lui	a5,0xfffff
ffff8adc:	80878513          	addi	a0,a5,-2040 # ffffe808 <uart0>
ffff8ae0:	00000097          	auipc	ra,0x0
ffff8ae4:	a1c080e7          	jalr	ra,-1508(ra) # ffff84fc <print_s>
ffff8ae8:	ffffa7b7          	lui	a5,0xffffa
ffff8aec:	67478593          	addi	a1,a5,1652 # ffffa674 <__text_end+0x1ac>
ffff8af0:	fffff7b7          	lui	a5,0xfffff
ffff8af4:	80878513          	addi	a0,a5,-2040 # ffffe808 <uart0>
ffff8af8:	00000097          	auipc	ra,0x0
ffff8afc:	a04080e7          	jalr	ra,-1532(ra) # ffff84fc <print_s>
ffff8b00:	00500593          	addi	a1,zero,5
ffff8b04:	fffff7b7          	lui	a5,0xfffff
ffff8b08:	80878513          	addi	a0,a5,-2040 # ffffe808 <uart0>
ffff8b0c:	00000097          	auipc	ra,0x0
ffff8b10:	a20080e7          	jalr	ra,-1504(ra) # ffff852c <print_i>
ffff8b14:	ffffa7b7          	lui	a5,0xffffa
ffff8b18:	50878593          	addi	a1,a5,1288 # ffffa508 <__text_end+0x40>
ffff8b1c:	fffff7b7          	lui	a5,0xfffff
ffff8b20:	80878513          	addi	a0,a5,-2040 # ffffe808 <uart0>
ffff8b24:	00000097          	auipc	ra,0x0
ffff8b28:	9d8080e7          	jalr	ra,-1576(ra) # ffff84fc <print_s>
ffff8b2c:	ffffa7b7          	lui	a5,0xffffa
ffff8b30:	68c78593          	addi	a1,a5,1676 # ffffa68c <__text_end+0x1c4>
ffff8b34:	fffff7b7          	lui	a5,0xfffff
ffff8b38:	80878513          	addi	a0,a5,-2040 # ffffe808 <uart0>
ffff8b3c:	00000097          	auipc	ra,0x0
ffff8b40:	9c0080e7          	jalr	ra,-1600(ra) # ffff84fc <print_s>
ffff8b44:	ffffe7b7          	lui	a5,0xffffe
ffff8b48:	7e47a783          	lw	a5,2020(a5) # ffffe7e4 <Bool_Glob>
ffff8b4c:	00078593          	addi	a1,a5,0
ffff8b50:	fffff7b7          	lui	a5,0xfffff
ffff8b54:	80878513          	addi	a0,a5,-2040 # ffffe808 <uart0>
ffff8b58:	00000097          	auipc	ra,0x0
ffff8b5c:	9d4080e7          	jalr	ra,-1580(ra) # ffff852c <print_i>
ffff8b60:	ffffa7b7          	lui	a5,0xffffa
ffff8b64:	50878593          	addi	a1,a5,1288 # ffffa508 <__text_end+0x40>
ffff8b68:	fffff7b7          	lui	a5,0xfffff
ffff8b6c:	80878513          	addi	a0,a5,-2040 # ffffe808 <uart0>
ffff8b70:	00000097          	auipc	ra,0x0
ffff8b74:	98c080e7          	jalr	ra,-1652(ra) # ffff84fc <print_s>
ffff8b78:	ffffa7b7          	lui	a5,0xffffa
ffff8b7c:	67478593          	addi	a1,a5,1652 # ffffa674 <__text_end+0x1ac>
ffff8b80:	fffff7b7          	lui	a5,0xfffff
ffff8b84:	80878513          	addi	a0,a5,-2040 # ffffe808 <uart0>
ffff8b88:	00000097          	auipc	ra,0x0
ffff8b8c:	974080e7          	jalr	ra,-1676(ra) # ffff84fc <print_s>
ffff8b90:	00100593          	addi	a1,zero,1
ffff8b94:	fffff7b7          	lui	a5,0xfffff
ffff8b98:	80878513          	addi	a0,a5,-2040 # ffffe808 <uart0>
ffff8b9c:	00000097          	auipc	ra,0x0
ffff8ba0:	990080e7          	jalr	ra,-1648(ra) # ffff852c <print_i>
ffff8ba4:	ffffa7b7          	lui	a5,0xffffa
ffff8ba8:	50878593          	addi	a1,a5,1288 # ffffa508 <__text_end+0x40>
ffff8bac:	fffff7b7          	lui	a5,0xfffff
ffff8bb0:	80878513          	addi	a0,a5,-2040 # ffffe808 <uart0>
ffff8bb4:	00000097          	auipc	ra,0x0
ffff8bb8:	948080e7          	jalr	ra,-1720(ra) # ffff84fc <print_s>
ffff8bbc:	ffffa7b7          	lui	a5,0xffffa
ffff8bc0:	6a478593          	addi	a1,a5,1700 # ffffa6a4 <__text_end+0x1dc>
ffff8bc4:	fffff7b7          	lui	a5,0xfffff
ffff8bc8:	80878513          	addi	a0,a5,-2040 # ffffe808 <uart0>
ffff8bcc:	00000097          	auipc	ra,0x0
ffff8bd0:	930080e7          	jalr	ra,-1744(ra) # ffff84fc <print_s>
ffff8bd4:	ffffe7b7          	lui	a5,0xffffe
ffff8bd8:	7e87c783          	lbu	a5,2024(a5) # ffffe7e8 <Ch_1_Glob>
ffff8bdc:	00078593          	addi	a1,a5,0
ffff8be0:	fffff7b7          	lui	a5,0xfffff
ffff8be4:	80878513          	addi	a0,a5,-2040 # ffffe808 <uart0>
ffff8be8:	00000097          	auipc	ra,0x0
ffff8bec:	98c080e7          	jalr	ra,-1652(ra) # ffff8574 <print_c>
ffff8bf0:	ffffa7b7          	lui	a5,0xffffa
ffff8bf4:	50878593          	addi	a1,a5,1288 # ffffa508 <__text_end+0x40>
ffff8bf8:	fffff7b7          	lui	a5,0xfffff
ffff8bfc:	80878513          	addi	a0,a5,-2040 # ffffe808 <uart0>
ffff8c00:	00000097          	auipc	ra,0x0
ffff8c04:	8fc080e7          	jalr	ra,-1796(ra) # ffff84fc <print_s>
ffff8c08:	ffffa7b7          	lui	a5,0xffffa
ffff8c0c:	67478593          	addi	a1,a5,1652 # ffffa674 <__text_end+0x1ac>
ffff8c10:	fffff7b7          	lui	a5,0xfffff
ffff8c14:	80878513          	addi	a0,a5,-2040 # ffffe808 <uart0>
ffff8c18:	00000097          	auipc	ra,0x0
ffff8c1c:	8e4080e7          	jalr	ra,-1820(ra) # ffff84fc <print_s>
ffff8c20:	04100593          	addi	a1,zero,65
ffff8c24:	fffff7b7          	lui	a5,0xfffff
ffff8c28:	80878513          	addi	a0,a5,-2040 # ffffe808 <uart0>
ffff8c2c:	00000097          	auipc	ra,0x0
ffff8c30:	948080e7          	jalr	ra,-1720(ra) # ffff8574 <print_c>
ffff8c34:	ffffa7b7          	lui	a5,0xffffa
ffff8c38:	50878593          	addi	a1,a5,1288 # ffffa508 <__text_end+0x40>
ffff8c3c:	fffff7b7          	lui	a5,0xfffff
ffff8c40:	80878513          	addi	a0,a5,-2040 # ffffe808 <uart0>
ffff8c44:	00000097          	auipc	ra,0x0
ffff8c48:	8b8080e7          	jalr	ra,-1864(ra) # ffff84fc <print_s>
ffff8c4c:	ffffa7b7          	lui	a5,0xffffa
ffff8c50:	6bc78593          	addi	a1,a5,1724 # ffffa6bc <__text_end+0x1f4>
ffff8c54:	fffff7b7          	lui	a5,0xfffff
ffff8c58:	80878513          	addi	a0,a5,-2040 # ffffe808 <uart0>
ffff8c5c:	00000097          	auipc	ra,0x0
ffff8c60:	8a0080e7          	jalr	ra,-1888(ra) # ffff84fc <print_s>
ffff8c64:	ffffe7b7          	lui	a5,0xffffe
ffff8c68:	7e97c783          	lbu	a5,2025(a5) # ffffe7e9 <Ch_2_Glob>
ffff8c6c:	00078593          	addi	a1,a5,0
ffff8c70:	fffff7b7          	lui	a5,0xfffff
ffff8c74:	80878513          	addi	a0,a5,-2040 # ffffe808 <uart0>
ffff8c78:	00000097          	auipc	ra,0x0
ffff8c7c:	8fc080e7          	jalr	ra,-1796(ra) # ffff8574 <print_c>
ffff8c80:	ffffa7b7          	lui	a5,0xffffa
ffff8c84:	50878593          	addi	a1,a5,1288 # ffffa508 <__text_end+0x40>
ffff8c88:	fffff7b7          	lui	a5,0xfffff
ffff8c8c:	80878513          	addi	a0,a5,-2040 # ffffe808 <uart0>
ffff8c90:	00000097          	auipc	ra,0x0
ffff8c94:	86c080e7          	jalr	ra,-1940(ra) # ffff84fc <print_s>
ffff8c98:	ffffa7b7          	lui	a5,0xffffa
ffff8c9c:	67478593          	addi	a1,a5,1652 # ffffa674 <__text_end+0x1ac>
ffff8ca0:	fffff7b7          	lui	a5,0xfffff
ffff8ca4:	80878513          	addi	a0,a5,-2040 # ffffe808 <uart0>
ffff8ca8:	00000097          	auipc	ra,0x0
ffff8cac:	854080e7          	jalr	ra,-1964(ra) # ffff84fc <print_s>
ffff8cb0:	04200593          	addi	a1,zero,66
ffff8cb4:	fffff7b7          	lui	a5,0xfffff
ffff8cb8:	80878513          	addi	a0,a5,-2040 # ffffe808 <uart0>
ffff8cbc:	00000097          	auipc	ra,0x0
ffff8cc0:	8b8080e7          	jalr	ra,-1864(ra) # ffff8574 <print_c>
ffff8cc4:	ffffa7b7          	lui	a5,0xffffa
ffff8cc8:	50878593          	addi	a1,a5,1288 # ffffa508 <__text_end+0x40>
ffff8ccc:	fffff7b7          	lui	a5,0xfffff
ffff8cd0:	80878513          	addi	a0,a5,-2040 # ffffe808 <uart0>
ffff8cd4:	00000097          	auipc	ra,0x0
ffff8cd8:	828080e7          	jalr	ra,-2008(ra) # ffff84fc <print_s>
ffff8cdc:	ffffa7b7          	lui	a5,0xffffa
ffff8ce0:	6d478593          	addi	a1,a5,1748 # ffffa6d4 <__text_end+0x20c>
ffff8ce4:	fffff7b7          	lui	a5,0xfffff
ffff8ce8:	80878513          	addi	a0,a5,-2040 # ffffe808 <uart0>
ffff8cec:	00000097          	auipc	ra,0x0
ffff8cf0:	810080e7          	jalr	ra,-2032(ra) # ffff84fc <print_s>
ffff8cf4:	ffffc7b7          	lui	a5,0xffffc
ffff8cf8:	00078793          	addi	a5,a5,0 # ffffc000 <__data_begin>
ffff8cfc:	0207a783          	lw	a5,32(a5)
ffff8d00:	00078593          	addi	a1,a5,0
ffff8d04:	fffff7b7          	lui	a5,0xfffff
ffff8d08:	80878513          	addi	a0,a5,-2040 # ffffe808 <uart0>
ffff8d0c:	00000097          	auipc	ra,0x0
ffff8d10:	820080e7          	jalr	ra,-2016(ra) # ffff852c <print_i>
ffff8d14:	ffffa7b7          	lui	a5,0xffffa
ffff8d18:	50878593          	addi	a1,a5,1288 # ffffa508 <__text_end+0x40>
ffff8d1c:	fffff7b7          	lui	a5,0xfffff
ffff8d20:	80878513          	addi	a0,a5,-2040 # ffffe808 <uart0>
ffff8d24:	fffff097          	auipc	ra,0xfffff
ffff8d28:	7d8080e7          	jalr	ra,2008(ra) # ffff84fc <print_s>
ffff8d2c:	ffffa7b7          	lui	a5,0xffffa
ffff8d30:	67478593          	addi	a1,a5,1652 # ffffa674 <__text_end+0x1ac>
ffff8d34:	fffff7b7          	lui	a5,0xfffff
ffff8d38:	80878513          	addi	a0,a5,-2040 # ffffe808 <uart0>
ffff8d3c:	fffff097          	auipc	ra,0xfffff
ffff8d40:	7c0080e7          	jalr	ra,1984(ra) # ffff84fc <print_s>
ffff8d44:	00700593          	addi	a1,zero,7
ffff8d48:	fffff7b7          	lui	a5,0xfffff
ffff8d4c:	80878513          	addi	a0,a5,-2040 # ffffe808 <uart0>
ffff8d50:	fffff097          	auipc	ra,0xfffff
ffff8d54:	7dc080e7          	jalr	ra,2012(ra) # ffff852c <print_i>
ffff8d58:	ffffa7b7          	lui	a5,0xffffa
ffff8d5c:	50878593          	addi	a1,a5,1288 # ffffa508 <__text_end+0x40>
ffff8d60:	fffff7b7          	lui	a5,0xfffff
ffff8d64:	80878513          	addi	a0,a5,-2040 # ffffe808 <uart0>
ffff8d68:	fffff097          	auipc	ra,0xfffff
ffff8d6c:	794080e7          	jalr	ra,1940(ra) # ffff84fc <print_s>
ffff8d70:	ffffa7b7          	lui	a5,0xffffa
ffff8d74:	6ec78593          	addi	a1,a5,1772 # ffffa6ec <__text_end+0x224>
ffff8d78:	fffff7b7          	lui	a5,0xfffff
ffff8d7c:	80878513          	addi	a0,a5,-2040 # ffffe808 <uart0>
ffff8d80:	fffff097          	auipc	ra,0xfffff
ffff8d84:	77c080e7          	jalr	ra,1916(ra) # ffff84fc <print_s>
ffff8d88:	ffffc7b7          	lui	a5,0xffffc
ffff8d8c:	0c878793          	addi	a5,a5,200 # ffffc0c8 <Arr_2_Glob>
ffff8d90:	65c7a783          	lw	a5,1628(a5)
ffff8d94:	00078593          	addi	a1,a5,0
ffff8d98:	fffff7b7          	lui	a5,0xfffff
ffff8d9c:	80878513          	addi	a0,a5,-2040 # ffffe808 <uart0>
ffff8da0:	fffff097          	auipc	ra,0xfffff
ffff8da4:	78c080e7          	jalr	ra,1932(ra) # ffff852c <print_i>
ffff8da8:	ffffa7b7          	lui	a5,0xffffa
ffff8dac:	50878593          	addi	a1,a5,1288 # ffffa508 <__text_end+0x40>
ffff8db0:	fffff7b7          	lui	a5,0xfffff
ffff8db4:	80878513          	addi	a0,a5,-2040 # ffffe808 <uart0>
ffff8db8:	fffff097          	auipc	ra,0xfffff
ffff8dbc:	744080e7          	jalr	ra,1860(ra) # ffff84fc <print_s>
ffff8dc0:	ffffa7b7          	lui	a5,0xffffa
ffff8dc4:	70478593          	addi	a1,a5,1796 # ffffa704 <__text_end+0x23c>
ffff8dc8:	fffff7b7          	lui	a5,0xfffff
ffff8dcc:	80878513          	addi	a0,a5,-2040 # ffffe808 <uart0>
ffff8dd0:	fffff097          	auipc	ra,0xfffff
ffff8dd4:	72c080e7          	jalr	ra,1836(ra) # ffff84fc <print_s>
ffff8dd8:	ffffa7b7          	lui	a5,0xffffa
ffff8ddc:	73078593          	addi	a1,a5,1840 # ffffa730 <__text_end+0x268>
ffff8de0:	fffff7b7          	lui	a5,0xfffff
ffff8de4:	80878513          	addi	a0,a5,-2040 # ffffe808 <uart0>
ffff8de8:	fffff097          	auipc	ra,0xfffff
ffff8dec:	714080e7          	jalr	ra,1812(ra) # ffff84fc <print_s>
ffff8df0:	ffffa7b7          	lui	a5,0xffffa
ffff8df4:	74078593          	addi	a1,a5,1856 # ffffa740 <__text_end+0x278>
ffff8df8:	fffff7b7          	lui	a5,0xfffff
ffff8dfc:	80878513          	addi	a0,a5,-2040 # ffffe808 <uart0>
ffff8e00:	fffff097          	auipc	ra,0xfffff
ffff8e04:	6fc080e7          	jalr	ra,1788(ra) # ffff84fc <print_s>
ffff8e08:	ffffe7b7          	lui	a5,0xffffe
ffff8e0c:	7d87a783          	lw	a5,2008(a5) # ffffe7d8 <Ptr_Glob>
ffff8e10:	0007a783          	lw	a5,0(a5)
ffff8e14:	00078593          	addi	a1,a5,0
ffff8e18:	fffff7b7          	lui	a5,0xfffff
ffff8e1c:	80878513          	addi	a0,a5,-2040 # ffffe808 <uart0>
ffff8e20:	fffff097          	auipc	ra,0xfffff
ffff8e24:	70c080e7          	jalr	ra,1804(ra) # ffff852c <print_i>
ffff8e28:	ffffa7b7          	lui	a5,0xffffa
ffff8e2c:	50878593          	addi	a1,a5,1288 # ffffa508 <__text_end+0x40>
ffff8e30:	fffff7b7          	lui	a5,0xfffff
ffff8e34:	80878513          	addi	a0,a5,-2040 # ffffe808 <uart0>
ffff8e38:	fffff097          	auipc	ra,0xfffff
ffff8e3c:	6c4080e7          	jalr	ra,1732(ra) # ffff84fc <print_s>
ffff8e40:	ffffa7b7          	lui	a5,0xffffa
ffff8e44:	75878593          	addi	a1,a5,1880 # ffffa758 <__text_end+0x290>
ffff8e48:	fffff7b7          	lui	a5,0xfffff
ffff8e4c:	80878513          	addi	a0,a5,-2040 # ffffe808 <uart0>
ffff8e50:	fffff097          	auipc	ra,0xfffff
ffff8e54:	6ac080e7          	jalr	ra,1708(ra) # ffff84fc <print_s>
ffff8e58:	ffffa7b7          	lui	a5,0xffffa
ffff8e5c:	78c78593          	addi	a1,a5,1932 # ffffa78c <__text_end+0x2c4>
ffff8e60:	fffff7b7          	lui	a5,0xfffff
ffff8e64:	80878513          	addi	a0,a5,-2040 # ffffe808 <uart0>
ffff8e68:	fffff097          	auipc	ra,0xfffff
ffff8e6c:	694080e7          	jalr	ra,1684(ra) # ffff84fc <print_s>
ffff8e70:	ffffe7b7          	lui	a5,0xffffe
ffff8e74:	7d87a783          	lw	a5,2008(a5) # ffffe7d8 <Ptr_Glob>
ffff8e78:	0047a783          	lw	a5,4(a5)
ffff8e7c:	00078593          	addi	a1,a5,0
ffff8e80:	fffff7b7          	lui	a5,0xfffff
ffff8e84:	80878513          	addi	a0,a5,-2040 # ffffe808 <uart0>
ffff8e88:	fffff097          	auipc	ra,0xfffff
ffff8e8c:	6a4080e7          	jalr	ra,1700(ra) # ffff852c <print_i>
ffff8e90:	ffffa7b7          	lui	a5,0xffffa
ffff8e94:	50878593          	addi	a1,a5,1288 # ffffa508 <__text_end+0x40>
ffff8e98:	fffff7b7          	lui	a5,0xfffff
ffff8e9c:	80878513          	addi	a0,a5,-2040 # ffffe808 <uart0>
ffff8ea0:	fffff097          	auipc	ra,0xfffff
ffff8ea4:	65c080e7          	jalr	ra,1628(ra) # ffff84fc <print_s>
ffff8ea8:	ffffa7b7          	lui	a5,0xffffa
ffff8eac:	67478593          	addi	a1,a5,1652 # ffffa674 <__text_end+0x1ac>
ffff8eb0:	fffff7b7          	lui	a5,0xfffff
ffff8eb4:	80878513          	addi	a0,a5,-2040 # ffffe808 <uart0>
ffff8eb8:	fffff097          	auipc	ra,0xfffff
ffff8ebc:	644080e7          	jalr	ra,1604(ra) # ffff84fc <print_s>
ffff8ec0:	00000593          	addi	a1,zero,0
ffff8ec4:	fffff7b7          	lui	a5,0xfffff
ffff8ec8:	80878513          	addi	a0,a5,-2040 # ffffe808 <uart0>
ffff8ecc:	fffff097          	auipc	ra,0xfffff
ffff8ed0:	660080e7          	jalr	ra,1632(ra) # ffff852c <print_i>
ffff8ed4:	ffffa7b7          	lui	a5,0xffffa
ffff8ed8:	50878593          	addi	a1,a5,1288 # ffffa508 <__text_end+0x40>
ffff8edc:	fffff7b7          	lui	a5,0xfffff
ffff8ee0:	80878513          	addi	a0,a5,-2040 # ffffe808 <uart0>
ffff8ee4:	fffff097          	auipc	ra,0xfffff
ffff8ee8:	618080e7          	jalr	ra,1560(ra) # ffff84fc <print_s>
ffff8eec:	ffffa7b7          	lui	a5,0xffffa
ffff8ef0:	7a478593          	addi	a1,a5,1956 # ffffa7a4 <__text_end+0x2dc>
ffff8ef4:	fffff7b7          	lui	a5,0xfffff
ffff8ef8:	80878513          	addi	a0,a5,-2040 # ffffe808 <uart0>
ffff8efc:	fffff097          	auipc	ra,0xfffff
ffff8f00:	600080e7          	jalr	ra,1536(ra) # ffff84fc <print_s>
ffff8f04:	ffffe7b7          	lui	a5,0xffffe
ffff8f08:	7d87a783          	lw	a5,2008(a5) # ffffe7d8 <Ptr_Glob>
ffff8f0c:	0087a783          	lw	a5,8(a5)
ffff8f10:	00078593          	addi	a1,a5,0
ffff8f14:	fffff7b7          	lui	a5,0xfffff
ffff8f18:	80878513          	addi	a0,a5,-2040 # ffffe808 <uart0>
ffff8f1c:	fffff097          	auipc	ra,0xfffff
ffff8f20:	610080e7          	jalr	ra,1552(ra) # ffff852c <print_i>
ffff8f24:	ffffa7b7          	lui	a5,0xffffa
ffff8f28:	50878593          	addi	a1,a5,1288 # ffffa508 <__text_end+0x40>
ffff8f2c:	fffff7b7          	lui	a5,0xfffff
ffff8f30:	80878513          	addi	a0,a5,-2040 # ffffe808 <uart0>
ffff8f34:	fffff097          	auipc	ra,0xfffff
ffff8f38:	5c8080e7          	jalr	ra,1480(ra) # ffff84fc <print_s>
ffff8f3c:	ffffa7b7          	lui	a5,0xffffa
ffff8f40:	67478593          	addi	a1,a5,1652 # ffffa674 <__text_end+0x1ac>
ffff8f44:	fffff7b7          	lui	a5,0xfffff
ffff8f48:	80878513          	addi	a0,a5,-2040 # ffffe808 <uart0>
ffff8f4c:	fffff097          	auipc	ra,0xfffff
ffff8f50:	5b0080e7          	jalr	ra,1456(ra) # ffff84fc <print_s>
ffff8f54:	00200593          	addi	a1,zero,2
ffff8f58:	fffff7b7          	lui	a5,0xfffff
ffff8f5c:	80878513          	addi	a0,a5,-2040 # ffffe808 <uart0>
ffff8f60:	fffff097          	auipc	ra,0xfffff
ffff8f64:	5cc080e7          	jalr	ra,1484(ra) # ffff852c <print_i>
ffff8f68:	ffffa7b7          	lui	a5,0xffffa
ffff8f6c:	50878593          	addi	a1,a5,1288 # ffffa508 <__text_end+0x40>
ffff8f70:	fffff7b7          	lui	a5,0xfffff
ffff8f74:	80878513          	addi	a0,a5,-2040 # ffffe808 <uart0>
ffff8f78:	fffff097          	auipc	ra,0xfffff
ffff8f7c:	584080e7          	jalr	ra,1412(ra) # ffff84fc <print_s>
ffff8f80:	ffffa7b7          	lui	a5,0xffffa
ffff8f84:	7bc78593          	addi	a1,a5,1980 # ffffa7bc <__text_end+0x2f4>
ffff8f88:	fffff7b7          	lui	a5,0xfffff
ffff8f8c:	80878513          	addi	a0,a5,-2040 # ffffe808 <uart0>
ffff8f90:	fffff097          	auipc	ra,0xfffff
ffff8f94:	56c080e7          	jalr	ra,1388(ra) # ffff84fc <print_s>
ffff8f98:	ffffe7b7          	lui	a5,0xffffe
ffff8f9c:	7d87a783          	lw	a5,2008(a5) # ffffe7d8 <Ptr_Glob>
ffff8fa0:	00c7a783          	lw	a5,12(a5)
ffff8fa4:	00078593          	addi	a1,a5,0
ffff8fa8:	fffff7b7          	lui	a5,0xfffff
ffff8fac:	80878513          	addi	a0,a5,-2040 # ffffe808 <uart0>
ffff8fb0:	fffff097          	auipc	ra,0xfffff
ffff8fb4:	57c080e7          	jalr	ra,1404(ra) # ffff852c <print_i>
ffff8fb8:	ffffa7b7          	lui	a5,0xffffa
ffff8fbc:	50878593          	addi	a1,a5,1288 # ffffa508 <__text_end+0x40>
ffff8fc0:	fffff7b7          	lui	a5,0xfffff
ffff8fc4:	80878513          	addi	a0,a5,-2040 # ffffe808 <uart0>
ffff8fc8:	fffff097          	auipc	ra,0xfffff
ffff8fcc:	534080e7          	jalr	ra,1332(ra) # ffff84fc <print_s>
ffff8fd0:	ffffa7b7          	lui	a5,0xffffa
ffff8fd4:	67478593          	addi	a1,a5,1652 # ffffa674 <__text_end+0x1ac>
ffff8fd8:	fffff7b7          	lui	a5,0xfffff
ffff8fdc:	80878513          	addi	a0,a5,-2040 # ffffe808 <uart0>
ffff8fe0:	fffff097          	auipc	ra,0xfffff
ffff8fe4:	51c080e7          	jalr	ra,1308(ra) # ffff84fc <print_s>
ffff8fe8:	01100593          	addi	a1,zero,17
ffff8fec:	fffff7b7          	lui	a5,0xfffff
ffff8ff0:	80878513          	addi	a0,a5,-2040 # ffffe808 <uart0>
ffff8ff4:	fffff097          	auipc	ra,0xfffff
ffff8ff8:	538080e7          	jalr	ra,1336(ra) # ffff852c <print_i>
ffff8ffc:	ffffa7b7          	lui	a5,0xffffa
ffff9000:	50878593          	addi	a1,a5,1288 # ffffa508 <__text_end+0x40>
ffff9004:	fffff7b7          	lui	a5,0xfffff
ffff9008:	80878513          	addi	a0,a5,-2040 # ffffe808 <uart0>
ffff900c:	fffff097          	auipc	ra,0xfffff
ffff9010:	4f0080e7          	jalr	ra,1264(ra) # ffff84fc <print_s>
ffff9014:	ffffa7b7          	lui	a5,0xffffa
ffff9018:	7d478593          	addi	a1,a5,2004 # ffffa7d4 <__text_end+0x30c>
ffff901c:	fffff7b7          	lui	a5,0xfffff
ffff9020:	80878513          	addi	a0,a5,-2040 # ffffe808 <uart0>
ffff9024:	fffff097          	auipc	ra,0xfffff
ffff9028:	4d8080e7          	jalr	ra,1240(ra) # ffff84fc <print_s>
ffff902c:	ffffe7b7          	lui	a5,0xffffe
ffff9030:	7d87a783          	lw	a5,2008(a5) # ffffe7d8 <Ptr_Glob>
ffff9034:	01078793          	addi	a5,a5,16
ffff9038:	00078593          	addi	a1,a5,0
ffff903c:	fffff7b7          	lui	a5,0xfffff
ffff9040:	80878513          	addi	a0,a5,-2040 # ffffe808 <uart0>
ffff9044:	fffff097          	auipc	ra,0xfffff
ffff9048:	4b8080e7          	jalr	ra,1208(ra) # ffff84fc <print_s>
ffff904c:	ffffa7b7          	lui	a5,0xffffa
ffff9050:	50878593          	addi	a1,a5,1288 # ffffa508 <__text_end+0x40>
ffff9054:	fffff7b7          	lui	a5,0xfffff
ffff9058:	80878513          	addi	a0,a5,-2040 # ffffe808 <uart0>
ffff905c:	fffff097          	auipc	ra,0xfffff
ffff9060:	4a0080e7          	jalr	ra,1184(ra) # ffff84fc <print_s>
ffff9064:	ffffa7b7          	lui	a5,0xffffa
ffff9068:	7ec78593          	addi	a1,a5,2028 # ffffa7ec <__text_end+0x324>
ffff906c:	fffff7b7          	lui	a5,0xfffff
ffff9070:	80878513          	addi	a0,a5,-2040 # ffffe808 <uart0>
ffff9074:	fffff097          	auipc	ra,0xfffff
ffff9078:	488080e7          	jalr	ra,1160(ra) # ffff84fc <print_s>
ffff907c:	ffffb7b7          	lui	a5,0xffffb
ffff9080:	82478593          	addi	a1,a5,-2012 # ffffa824 <__text_end+0x35c>
ffff9084:	fffff7b7          	lui	a5,0xfffff
ffff9088:	80878513          	addi	a0,a5,-2040 # ffffe808 <uart0>
ffff908c:	fffff097          	auipc	ra,0xfffff
ffff9090:	470080e7          	jalr	ra,1136(ra) # ffff84fc <print_s>
ffff9094:	ffffa7b7          	lui	a5,0xffffa
ffff9098:	74078593          	addi	a1,a5,1856 # ffffa740 <__text_end+0x278>
ffff909c:	fffff7b7          	lui	a5,0xfffff
ffff90a0:	80878513          	addi	a0,a5,-2040 # ffffe808 <uart0>
ffff90a4:	fffff097          	auipc	ra,0xfffff
ffff90a8:	458080e7          	jalr	ra,1112(ra) # ffff84fc <print_s>
ffff90ac:	ffffe7b7          	lui	a5,0xffffe
ffff90b0:	7dc7a783          	lw	a5,2012(a5) # ffffe7dc <Next_Ptr_Glob>
ffff90b4:	0007a783          	lw	a5,0(a5)
ffff90b8:	00078593          	addi	a1,a5,0
ffff90bc:	fffff7b7          	lui	a5,0xfffff
ffff90c0:	80878513          	addi	a0,a5,-2040 # ffffe808 <uart0>
ffff90c4:	fffff097          	auipc	ra,0xfffff
ffff90c8:	468080e7          	jalr	ra,1128(ra) # ffff852c <print_i>
ffff90cc:	ffffa7b7          	lui	a5,0xffffa
ffff90d0:	50878593          	addi	a1,a5,1288 # ffffa508 <__text_end+0x40>
ffff90d4:	fffff7b7          	lui	a5,0xfffff
ffff90d8:	80878513          	addi	a0,a5,-2040 # ffffe808 <uart0>
ffff90dc:	fffff097          	auipc	ra,0xfffff
ffff90e0:	420080e7          	jalr	ra,1056(ra) # ffff84fc <print_s>
ffff90e4:	ffffb7b7          	lui	a5,0xffffb
ffff90e8:	83878593          	addi	a1,a5,-1992 # ffffa838 <__text_end+0x370>
ffff90ec:	fffff7b7          	lui	a5,0xfffff
ffff90f0:	80878513          	addi	a0,a5,-2040 # ffffe808 <uart0>
ffff90f4:	fffff097          	auipc	ra,0xfffff
ffff90f8:	408080e7          	jalr	ra,1032(ra) # ffff84fc <print_s>
ffff90fc:	ffffa7b7          	lui	a5,0xffffa
ffff9100:	78c78593          	addi	a1,a5,1932 # ffffa78c <__text_end+0x2c4>
ffff9104:	fffff7b7          	lui	a5,0xfffff
ffff9108:	80878513          	addi	a0,a5,-2040 # ffffe808 <uart0>
ffff910c:	fffff097          	auipc	ra,0xfffff
ffff9110:	3f0080e7          	jalr	ra,1008(ra) # ffff84fc <print_s>
ffff9114:	ffffe7b7          	lui	a5,0xffffe
ffff9118:	7dc7a783          	lw	a5,2012(a5) # ffffe7dc <Next_Ptr_Glob>
ffff911c:	0047a783          	lw	a5,4(a5)
ffff9120:	00078593          	addi	a1,a5,0
ffff9124:	fffff7b7          	lui	a5,0xfffff
ffff9128:	80878513          	addi	a0,a5,-2040 # ffffe808 <uart0>
ffff912c:	fffff097          	auipc	ra,0xfffff
ffff9130:	400080e7          	jalr	ra,1024(ra) # ffff852c <print_i>
ffff9134:	ffffa7b7          	lui	a5,0xffffa
ffff9138:	50878593          	addi	a1,a5,1288 # ffffa508 <__text_end+0x40>
ffff913c:	fffff7b7          	lui	a5,0xfffff
ffff9140:	80878513          	addi	a0,a5,-2040 # ffffe808 <uart0>
ffff9144:	fffff097          	auipc	ra,0xfffff
ffff9148:	3b8080e7          	jalr	ra,952(ra) # ffff84fc <print_s>
ffff914c:	ffffa7b7          	lui	a5,0xffffa
ffff9150:	67478593          	addi	a1,a5,1652 # ffffa674 <__text_end+0x1ac>
ffff9154:	fffff7b7          	lui	a5,0xfffff
ffff9158:	80878513          	addi	a0,a5,-2040 # ffffe808 <uart0>
ffff915c:	fffff097          	auipc	ra,0xfffff
ffff9160:	3a0080e7          	jalr	ra,928(ra) # ffff84fc <print_s>
ffff9164:	00000593          	addi	a1,zero,0
ffff9168:	fffff7b7          	lui	a5,0xfffff
ffff916c:	80878513          	addi	a0,a5,-2040 # ffffe808 <uart0>
ffff9170:	fffff097          	auipc	ra,0xfffff
ffff9174:	3bc080e7          	jalr	ra,956(ra) # ffff852c <print_i>
ffff9178:	ffffa7b7          	lui	a5,0xffffa
ffff917c:	50878593          	addi	a1,a5,1288 # ffffa508 <__text_end+0x40>
ffff9180:	fffff7b7          	lui	a5,0xfffff
ffff9184:	80878513          	addi	a0,a5,-2040 # ffffe808 <uart0>
ffff9188:	fffff097          	auipc	ra,0xfffff
ffff918c:	374080e7          	jalr	ra,884(ra) # ffff84fc <print_s>
ffff9190:	ffffa7b7          	lui	a5,0xffffa
ffff9194:	7a478593          	addi	a1,a5,1956 # ffffa7a4 <__text_end+0x2dc>
ffff9198:	fffff7b7          	lui	a5,0xfffff
ffff919c:	80878513          	addi	a0,a5,-2040 # ffffe808 <uart0>
ffff91a0:	fffff097          	auipc	ra,0xfffff
ffff91a4:	35c080e7          	jalr	ra,860(ra) # ffff84fc <print_s>
ffff91a8:	ffffe7b7          	lui	a5,0xffffe
ffff91ac:	7dc7a783          	lw	a5,2012(a5) # ffffe7dc <Next_Ptr_Glob>
ffff91b0:	0087a783          	lw	a5,8(a5)
ffff91b4:	00078593          	addi	a1,a5,0
ffff91b8:	fffff7b7          	lui	a5,0xfffff
ffff91bc:	80878513          	addi	a0,a5,-2040 # ffffe808 <uart0>
ffff91c0:	fffff097          	auipc	ra,0xfffff
ffff91c4:	36c080e7          	jalr	ra,876(ra) # ffff852c <print_i>
ffff91c8:	ffffa7b7          	lui	a5,0xffffa
ffff91cc:	50878593          	addi	a1,a5,1288 # ffffa508 <__text_end+0x40>
ffff91d0:	fffff7b7          	lui	a5,0xfffff
ffff91d4:	80878513          	addi	a0,a5,-2040 # ffffe808 <uart0>
ffff91d8:	fffff097          	auipc	ra,0xfffff
ffff91dc:	324080e7          	jalr	ra,804(ra) # ffff84fc <print_s>
ffff91e0:	ffffa7b7          	lui	a5,0xffffa
ffff91e4:	67478593          	addi	a1,a5,1652 # ffffa674 <__text_end+0x1ac>
ffff91e8:	fffff7b7          	lui	a5,0xfffff
ffff91ec:	80878513          	addi	a0,a5,-2040 # ffffe808 <uart0>
ffff91f0:	fffff097          	auipc	ra,0xfffff
ffff91f4:	30c080e7          	jalr	ra,780(ra) # ffff84fc <print_s>
ffff91f8:	00100593          	addi	a1,zero,1
ffff91fc:	fffff7b7          	lui	a5,0xfffff
ffff9200:	80878513          	addi	a0,a5,-2040 # ffffe808 <uart0>
ffff9204:	fffff097          	auipc	ra,0xfffff
ffff9208:	328080e7          	jalr	ra,808(ra) # ffff852c <print_i>
ffff920c:	ffffa7b7          	lui	a5,0xffffa
ffff9210:	50878593          	addi	a1,a5,1288 # ffffa508 <__text_end+0x40>
ffff9214:	fffff7b7          	lui	a5,0xfffff
ffff9218:	80878513          	addi	a0,a5,-2040 # ffffe808 <uart0>
ffff921c:	fffff097          	auipc	ra,0xfffff
ffff9220:	2e0080e7          	jalr	ra,736(ra) # ffff84fc <print_s>
ffff9224:	ffffa7b7          	lui	a5,0xffffa
ffff9228:	7bc78593          	addi	a1,a5,1980 # ffffa7bc <__text_end+0x2f4>
ffff922c:	fffff7b7          	lui	a5,0xfffff
ffff9230:	80878513          	addi	a0,a5,-2040 # ffffe808 <uart0>
ffff9234:	fffff097          	auipc	ra,0xfffff
ffff9238:	2c8080e7          	jalr	ra,712(ra) # ffff84fc <print_s>
ffff923c:	ffffe7b7          	lui	a5,0xffffe
ffff9240:	7dc7a783          	lw	a5,2012(a5) # ffffe7dc <Next_Ptr_Glob>
ffff9244:	00c7a783          	lw	a5,12(a5)
ffff9248:	00078593          	addi	a1,a5,0
ffff924c:	fffff7b7          	lui	a5,0xfffff
ffff9250:	80878513          	addi	a0,a5,-2040 # ffffe808 <uart0>
ffff9254:	fffff097          	auipc	ra,0xfffff
ffff9258:	2d8080e7          	jalr	ra,728(ra) # ffff852c <print_i>
ffff925c:	ffffa7b7          	lui	a5,0xffffa
ffff9260:	50878593          	addi	a1,a5,1288 # ffffa508 <__text_end+0x40>
ffff9264:	fffff7b7          	lui	a5,0xfffff
ffff9268:	80878513          	addi	a0,a5,-2040 # ffffe808 <uart0>
ffff926c:	fffff097          	auipc	ra,0xfffff
ffff9270:	290080e7          	jalr	ra,656(ra) # ffff84fc <print_s>
ffff9274:	ffffa7b7          	lui	a5,0xffffa
ffff9278:	67478593          	addi	a1,a5,1652 # ffffa674 <__text_end+0x1ac>
ffff927c:	fffff7b7          	lui	a5,0xfffff
ffff9280:	80878513          	addi	a0,a5,-2040 # ffffe808 <uart0>
ffff9284:	fffff097          	auipc	ra,0xfffff
ffff9288:	278080e7          	jalr	ra,632(ra) # ffff84fc <print_s>
ffff928c:	01200593          	addi	a1,zero,18
ffff9290:	fffff7b7          	lui	a5,0xfffff
ffff9294:	80878513          	addi	a0,a5,-2040 # ffffe808 <uart0>
ffff9298:	fffff097          	auipc	ra,0xfffff
ffff929c:	294080e7          	jalr	ra,660(ra) # ffff852c <print_i>
ffff92a0:	ffffa7b7          	lui	a5,0xffffa
ffff92a4:	50878593          	addi	a1,a5,1288 # ffffa508 <__text_end+0x40>
ffff92a8:	fffff7b7          	lui	a5,0xfffff
ffff92ac:	80878513          	addi	a0,a5,-2040 # ffffe808 <uart0>
ffff92b0:	fffff097          	auipc	ra,0xfffff
ffff92b4:	24c080e7          	jalr	ra,588(ra) # ffff84fc <print_s>
ffff92b8:	ffffa7b7          	lui	a5,0xffffa
ffff92bc:	7d478593          	addi	a1,a5,2004 # ffffa7d4 <__text_end+0x30c>
ffff92c0:	fffff7b7          	lui	a5,0xfffff
ffff92c4:	80878513          	addi	a0,a5,-2040 # ffffe808 <uart0>
ffff92c8:	fffff097          	auipc	ra,0xfffff
ffff92cc:	234080e7          	jalr	ra,564(ra) # ffff84fc <print_s>
ffff92d0:	ffffe7b7          	lui	a5,0xffffe
ffff92d4:	7dc7a783          	lw	a5,2012(a5) # ffffe7dc <Next_Ptr_Glob>
ffff92d8:	01078793          	addi	a5,a5,16
ffff92dc:	00078593          	addi	a1,a5,0
ffff92e0:	fffff7b7          	lui	a5,0xfffff
ffff92e4:	80878513          	addi	a0,a5,-2040 # ffffe808 <uart0>
ffff92e8:	fffff097          	auipc	ra,0xfffff
ffff92ec:	214080e7          	jalr	ra,532(ra) # ffff84fc <print_s>
ffff92f0:	ffffa7b7          	lui	a5,0xffffa
ffff92f4:	50878593          	addi	a1,a5,1288 # ffffa508 <__text_end+0x40>
ffff92f8:	fffff7b7          	lui	a5,0xfffff
ffff92fc:	80878513          	addi	a0,a5,-2040 # ffffe808 <uart0>
ffff9300:	fffff097          	auipc	ra,0xfffff
ffff9304:	1fc080e7          	jalr	ra,508(ra) # ffff84fc <print_s>
ffff9308:	ffffa7b7          	lui	a5,0xffffa
ffff930c:	7ec78593          	addi	a1,a5,2028 # ffffa7ec <__text_end+0x324>
ffff9310:	fffff7b7          	lui	a5,0xfffff
ffff9314:	80878513          	addi	a0,a5,-2040 # ffffe808 <uart0>
ffff9318:	fffff097          	auipc	ra,0xfffff
ffff931c:	1e4080e7          	jalr	ra,484(ra) # ffff84fc <print_s>
ffff9320:	ffffb7b7          	lui	a5,0xffffb
ffff9324:	87c78593          	addi	a1,a5,-1924 # ffffa87c <__text_end+0x3b4>
ffff9328:	fffff7b7          	lui	a5,0xfffff
ffff932c:	80878513          	addi	a0,a5,-2040 # ffffe808 <uart0>
ffff9330:	fffff097          	auipc	ra,0xfffff
ffff9334:	1cc080e7          	jalr	ra,460(ra) # ffff84fc <print_s>
ffff9338:	0a812783          	lw	a5,168(sp)
ffff933c:	00078593          	addi	a1,a5,0
ffff9340:	fffff7b7          	lui	a5,0xfffff
ffff9344:	80878513          	addi	a0,a5,-2040 # ffffe808 <uart0>
ffff9348:	fffff097          	auipc	ra,0xfffff
ffff934c:	1e4080e7          	jalr	ra,484(ra) # ffff852c <print_i>
ffff9350:	ffffa7b7          	lui	a5,0xffffa
ffff9354:	50878593          	addi	a1,a5,1288 # ffffa508 <__text_end+0x40>
ffff9358:	fffff7b7          	lui	a5,0xfffff
ffff935c:	80878513          	addi	a0,a5,-2040 # ffffe808 <uart0>
ffff9360:	fffff097          	auipc	ra,0xfffff
ffff9364:	19c080e7          	jalr	ra,412(ra) # ffff84fc <print_s>
ffff9368:	ffffa7b7          	lui	a5,0xffffa
ffff936c:	67478593          	addi	a1,a5,1652 # ffffa674 <__text_end+0x1ac>
ffff9370:	fffff7b7          	lui	a5,0xfffff
ffff9374:	80878513          	addi	a0,a5,-2040 # ffffe808 <uart0>
ffff9378:	fffff097          	auipc	ra,0xfffff
ffff937c:	184080e7          	jalr	ra,388(ra) # ffff84fc <print_s>
ffff9380:	00500593          	addi	a1,zero,5
ffff9384:	fffff7b7          	lui	a5,0xfffff
ffff9388:	80878513          	addi	a0,a5,-2040 # ffffe808 <uart0>
ffff938c:	fffff097          	auipc	ra,0xfffff
ffff9390:	1a0080e7          	jalr	ra,416(ra) # ffff852c <print_i>
ffff9394:	ffffa7b7          	lui	a5,0xffffa
ffff9398:	50878593          	addi	a1,a5,1288 # ffffa508 <__text_end+0x40>
ffff939c:	fffff7b7          	lui	a5,0xfffff
ffff93a0:	80878513          	addi	a0,a5,-2040 # ffffe808 <uart0>
ffff93a4:	fffff097          	auipc	ra,0xfffff
ffff93a8:	158080e7          	jalr	ra,344(ra) # ffff84fc <print_s>
ffff93ac:	ffffb7b7          	lui	a5,0xffffb
ffff93b0:	89478593          	addi	a1,a5,-1900 # ffffa894 <__text_end+0x3cc>
ffff93b4:	fffff7b7          	lui	a5,0xfffff
ffff93b8:	80878513          	addi	a0,a5,-2040 # ffffe808 <uart0>
ffff93bc:	fffff097          	auipc	ra,0xfffff
ffff93c0:	140080e7          	jalr	ra,320(ra) # ffff84fc <print_s>
ffff93c4:	0bc12583          	lw	a1,188(sp)
ffff93c8:	fffff7b7          	lui	a5,0xfffff
ffff93cc:	80878513          	addi	a0,a5,-2040 # ffffe808 <uart0>
ffff93d0:	fffff097          	auipc	ra,0xfffff
ffff93d4:	15c080e7          	jalr	ra,348(ra) # ffff852c <print_i>
ffff93d8:	ffffa7b7          	lui	a5,0xffffa
ffff93dc:	50878593          	addi	a1,a5,1288 # ffffa508 <__text_end+0x40>
ffff93e0:	fffff7b7          	lui	a5,0xfffff
ffff93e4:	80878513          	addi	a0,a5,-2040 # ffffe808 <uart0>
ffff93e8:	fffff097          	auipc	ra,0xfffff
ffff93ec:	114080e7          	jalr	ra,276(ra) # ffff84fc <print_s>
ffff93f0:	ffffa7b7          	lui	a5,0xffffa
ffff93f4:	67478593          	addi	a1,a5,1652 # ffffa674 <__text_end+0x1ac>
ffff93f8:	fffff7b7          	lui	a5,0xfffff
ffff93fc:	80878513          	addi	a0,a5,-2040 # ffffe808 <uart0>
ffff9400:	fffff097          	auipc	ra,0xfffff
ffff9404:	0fc080e7          	jalr	ra,252(ra) # ffff84fc <print_s>
ffff9408:	00d00593          	addi	a1,zero,13
ffff940c:	fffff7b7          	lui	a5,0xfffff
ffff9410:	80878513          	addi	a0,a5,-2040 # ffffe808 <uart0>
ffff9414:	fffff097          	auipc	ra,0xfffff
ffff9418:	118080e7          	jalr	ra,280(ra) # ffff852c <print_i>
ffff941c:	ffffa7b7          	lui	a5,0xffffa
ffff9420:	50878593          	addi	a1,a5,1288 # ffffa508 <__text_end+0x40>
ffff9424:	fffff7b7          	lui	a5,0xfffff
ffff9428:	80878513          	addi	a0,a5,-2040 # ffffe808 <uart0>
ffff942c:	fffff097          	auipc	ra,0xfffff
ffff9430:	0d0080e7          	jalr	ra,208(ra) # ffff84fc <print_s>
ffff9434:	ffffb7b7          	lui	a5,0xffffb
ffff9438:	8ac78593          	addi	a1,a5,-1876 # ffffa8ac <__text_end+0x3e4>
ffff943c:	fffff7b7          	lui	a5,0xfffff
ffff9440:	80878513          	addi	a0,a5,-2040 # ffffe808 <uart0>
ffff9444:	fffff097          	auipc	ra,0xfffff
ffff9448:	0b8080e7          	jalr	ra,184(ra) # ffff84fc <print_s>
ffff944c:	0a412783          	lw	a5,164(sp)
ffff9450:	00078593          	addi	a1,a5,0
ffff9454:	fffff7b7          	lui	a5,0xfffff
ffff9458:	80878513          	addi	a0,a5,-2040 # ffffe808 <uart0>
ffff945c:	fffff097          	auipc	ra,0xfffff
ffff9460:	0d0080e7          	jalr	ra,208(ra) # ffff852c <print_i>
ffff9464:	ffffa7b7          	lui	a5,0xffffa
ffff9468:	50878593          	addi	a1,a5,1288 # ffffa508 <__text_end+0x40>
ffff946c:	fffff7b7          	lui	a5,0xfffff
ffff9470:	80878513          	addi	a0,a5,-2040 # ffffe808 <uart0>
ffff9474:	fffff097          	auipc	ra,0xfffff
ffff9478:	088080e7          	jalr	ra,136(ra) # ffff84fc <print_s>
ffff947c:	ffffa7b7          	lui	a5,0xffffa
ffff9480:	67478593          	addi	a1,a5,1652 # ffffa674 <__text_end+0x1ac>
ffff9484:	fffff7b7          	lui	a5,0xfffff
ffff9488:	80878513          	addi	a0,a5,-2040 # ffffe808 <uart0>
ffff948c:	fffff097          	auipc	ra,0xfffff
ffff9490:	070080e7          	jalr	ra,112(ra) # ffff84fc <print_s>
ffff9494:	00700593          	addi	a1,zero,7
ffff9498:	fffff7b7          	lui	a5,0xfffff
ffff949c:	80878513          	addi	a0,a5,-2040 # ffffe808 <uart0>
ffff94a0:	fffff097          	auipc	ra,0xfffff
ffff94a4:	08c080e7          	jalr	ra,140(ra) # ffff852c <print_i>
ffff94a8:	ffffa7b7          	lui	a5,0xffffa
ffff94ac:	50878593          	addi	a1,a5,1288 # ffffa508 <__text_end+0x40>
ffff94b0:	fffff7b7          	lui	a5,0xfffff
ffff94b4:	80878513          	addi	a0,a5,-2040 # ffffe808 <uart0>
ffff94b8:	fffff097          	auipc	ra,0xfffff
ffff94bc:	044080e7          	jalr	ra,68(ra) # ffff84fc <print_s>
ffff94c0:	ffffb7b7          	lui	a5,0xffffb
ffff94c4:	8c478593          	addi	a1,a5,-1852 # ffffa8c4 <__text_end+0x3fc>
ffff94c8:	fffff7b7          	lui	a5,0xfffff
ffff94cc:	80878513          	addi	a0,a5,-2040 # ffffe808 <uart0>
ffff94d0:	fffff097          	auipc	ra,0xfffff
ffff94d4:	02c080e7          	jalr	ra,44(ra) # ffff84fc <print_s>
ffff94d8:	0a012783          	lw	a5,160(sp)
ffff94dc:	00078593          	addi	a1,a5,0
ffff94e0:	fffff7b7          	lui	a5,0xfffff
ffff94e4:	80878513          	addi	a0,a5,-2040 # ffffe808 <uart0>
ffff94e8:	fffff097          	auipc	ra,0xfffff
ffff94ec:	044080e7          	jalr	ra,68(ra) # ffff852c <print_i>
ffff94f0:	ffffa7b7          	lui	a5,0xffffa
ffff94f4:	50878593          	addi	a1,a5,1288 # ffffa508 <__text_end+0x40>
ffff94f8:	fffff7b7          	lui	a5,0xfffff
ffff94fc:	80878513          	addi	a0,a5,-2040 # ffffe808 <uart0>
ffff9500:	fffff097          	auipc	ra,0xfffff
ffff9504:	ffc080e7          	jalr	ra,-4(ra) # ffff84fc <print_s>
ffff9508:	ffffa7b7          	lui	a5,0xffffa
ffff950c:	67478593          	addi	a1,a5,1652 # ffffa674 <__text_end+0x1ac>
ffff9510:	fffff7b7          	lui	a5,0xfffff
ffff9514:	80878513          	addi	a0,a5,-2040 # ffffe808 <uart0>
ffff9518:	fffff097          	auipc	ra,0xfffff
ffff951c:	fe4080e7          	jalr	ra,-28(ra) # ffff84fc <print_s>
ffff9520:	00100593          	addi	a1,zero,1
ffff9524:	fffff7b7          	lui	a5,0xfffff
ffff9528:	80878513          	addi	a0,a5,-2040 # ffffe808 <uart0>
ffff952c:	fffff097          	auipc	ra,0xfffff
ffff9530:	000080e7          	jalr	ra,0(ra) # ffff852c <print_i>
ffff9534:	ffffa7b7          	lui	a5,0xffffa
ffff9538:	50878593          	addi	a1,a5,1288 # ffffa508 <__text_end+0x40>
ffff953c:	fffff7b7          	lui	a5,0xfffff
ffff9540:	80878513          	addi	a0,a5,-2040 # ffffe808 <uart0>
ffff9544:	fffff097          	auipc	ra,0xfffff
ffff9548:	fb8080e7          	jalr	ra,-72(ra) # ffff84fc <print_s>
ffff954c:	ffffb7b7          	lui	a5,0xffffb
ffff9550:	8dc78593          	addi	a1,a5,-1828 # ffffa8dc <__text_end+0x414>
ffff9554:	fffff7b7          	lui	a5,0xfffff
ffff9558:	80878513          	addi	a0,a5,-2040 # ffffe808 <uart0>
ffff955c:	fffff097          	auipc	ra,0xfffff
ffff9560:	fa0080e7          	jalr	ra,-96(ra) # ffff84fc <print_s>
ffff9564:	08010793          	addi	a5,sp,128
ffff9568:	00078593          	addi	a1,a5,0
ffff956c:	fffff7b7          	lui	a5,0xfffff
ffff9570:	80878513          	addi	a0,a5,-2040 # ffffe808 <uart0>
ffff9574:	fffff097          	auipc	ra,0xfffff
ffff9578:	f88080e7          	jalr	ra,-120(ra) # ffff84fc <print_s>
ffff957c:	ffffa7b7          	lui	a5,0xffffa
ffff9580:	50878593          	addi	a1,a5,1288 # ffffa508 <__text_end+0x40>
ffff9584:	fffff7b7          	lui	a5,0xfffff
ffff9588:	80878513          	addi	a0,a5,-2040 # ffffe808 <uart0>
ffff958c:	fffff097          	auipc	ra,0xfffff
ffff9590:	f70080e7          	jalr	ra,-144(ra) # ffff84fc <print_s>
ffff9594:	ffffb7b7          	lui	a5,0xffffb
ffff9598:	8f478593          	addi	a1,a5,-1804 # ffffa8f4 <__text_end+0x42c>
ffff959c:	fffff7b7          	lui	a5,0xfffff
ffff95a0:	80878513          	addi	a0,a5,-2040 # ffffe808 <uart0>
ffff95a4:	fffff097          	auipc	ra,0xfffff
ffff95a8:	f58080e7          	jalr	ra,-168(ra) # ffff84fc <print_s>
ffff95ac:	ffffb7b7          	lui	a5,0xffffb
ffff95b0:	92c78593          	addi	a1,a5,-1748 # ffffa92c <__text_end+0x464>
ffff95b4:	fffff7b7          	lui	a5,0xfffff
ffff95b8:	80878513          	addi	a0,a5,-2040 # ffffe808 <uart0>
ffff95bc:	fffff097          	auipc	ra,0xfffff
ffff95c0:	f40080e7          	jalr	ra,-192(ra) # ffff84fc <print_s>
ffff95c4:	06010793          	addi	a5,sp,96
ffff95c8:	00078593          	addi	a1,a5,0
ffff95cc:	fffff7b7          	lui	a5,0xfffff
ffff95d0:	80878513          	addi	a0,a5,-2040 # ffffe808 <uart0>
ffff95d4:	fffff097          	auipc	ra,0xfffff
ffff95d8:	f28080e7          	jalr	ra,-216(ra) # ffff84fc <print_s>
ffff95dc:	ffffa7b7          	lui	a5,0xffffa
ffff95e0:	50878593          	addi	a1,a5,1288 # ffffa508 <__text_end+0x40>
ffff95e4:	fffff7b7          	lui	a5,0xfffff
ffff95e8:	80878513          	addi	a0,a5,-2040 # ffffe808 <uart0>
ffff95ec:	fffff097          	auipc	ra,0xfffff
ffff95f0:	f10080e7          	jalr	ra,-240(ra) # ffff84fc <print_s>
ffff95f4:	ffffb7b7          	lui	a5,0xffffb
ffff95f8:	94478593          	addi	a1,a5,-1724 # ffffa944 <__text_end+0x47c>
ffff95fc:	fffff7b7          	lui	a5,0xfffff
ffff9600:	80878513          	addi	a0,a5,-2040 # ffffe808 <uart0>
ffff9604:	fffff097          	auipc	ra,0xfffff
ffff9608:	ef8080e7          	jalr	ra,-264(ra) # ffff84fc <print_s>
ffff960c:	ffffa7b7          	lui	a5,0xffffa
ffff9610:	50878593          	addi	a1,a5,1288 # ffffa508 <__text_end+0x40>
ffff9614:	fffff7b7          	lui	a5,0xfffff
ffff9618:	80878513          	addi	a0,a5,-2040 # ffffe808 <uart0>
ffff961c:	fffff097          	auipc	ra,0xfffff
ffff9620:	ee0080e7          	jalr	ra,-288(ra) # ffff84fc <print_s>
ffff9624:	ffffe7b7          	lui	a5,0xffffe
ffff9628:	7f87a703          	lw	a4,2040(a5) # ffffe7f8 <End_Time>
ffff962c:	ffffe7b7          	lui	a5,0xffffe
ffff9630:	7f47a783          	lw	a5,2036(a5) # ffffe7f4 <Begin_Time>
ffff9634:	40f70733          	sub	a4,a4,a5
ffff9638:	ffffe7b7          	lui	a5,0xffffe
ffff963c:	7ee7ae23          	sw	a4,2044(a5) # ffffe7fc <User_Time>
ffff9640:	ffffb7b7          	lui	a5,0xffffb
ffff9644:	97c78593          	addi	a1,a5,-1668 # ffffa97c <__text_end+0x4b4>
ffff9648:	fffff7b7          	lui	a5,0xfffff
ffff964c:	80878513          	addi	a0,a5,-2040 # ffffe808 <uart0>
ffff9650:	fffff097          	auipc	ra,0xfffff
ffff9654:	eac080e7          	jalr	ra,-340(ra) # ffff84fc <print_s>
ffff9658:	ffffe7b7          	lui	a5,0xffffe
ffff965c:	7fc7a783          	lw	a5,2044(a5) # ffffe7fc <User_Time>
ffff9660:	00078593          	addi	a1,a5,0
ffff9664:	fffff7b7          	lui	a5,0xfffff
ffff9668:	80878513          	addi	a0,a5,-2040 # ffffe808 <uart0>
ffff966c:	fffff097          	auipc	ra,0xfffff
ffff9670:	ec0080e7          	jalr	ra,-320(ra) # ffff852c <print_i>
ffff9674:	ffffa7b7          	lui	a5,0xffffa
ffff9678:	50878593          	addi	a1,a5,1288 # ffffa508 <__text_end+0x40>
ffff967c:	fffff7b7          	lui	a5,0xfffff
ffff9680:	80878513          	addi	a0,a5,-2040 # ffffe808 <uart0>
ffff9684:	fffff097          	auipc	ra,0xfffff
ffff9688:	e78080e7          	jalr	ra,-392(ra) # ffff84fc <print_s>
ffff968c:	ffffb7b7          	lui	a5,0xffffb
ffff9690:	98878593          	addi	a1,a5,-1656 # ffffa988 <__text_end+0x4c0>
ffff9694:	fffff7b7          	lui	a5,0xfffff
ffff9698:	80878513          	addi	a0,a5,-2040 # ffffe808 <uart0>
ffff969c:	fffff097          	auipc	ra,0xfffff
ffff96a0:	e60080e7          	jalr	ra,-416(ra) # ffff84fc <print_s>
ffff96a4:	03200593          	addi	a1,zero,50
ffff96a8:	fffff7b7          	lui	a5,0xfffff
ffff96ac:	80878513          	addi	a0,a5,-2040 # ffffe808 <uart0>
ffff96b0:	fffff097          	auipc	ra,0xfffff
ffff96b4:	e7c080e7          	jalr	ra,-388(ra) # ffff852c <print_i>
ffff96b8:	ffffb7b7          	lui	a5,0xffffb
ffff96bc:	99c78593          	addi	a1,a5,-1636 # ffffa99c <__text_end+0x4d4>
ffff96c0:	fffff7b7          	lui	a5,0xfffff
ffff96c4:	80878513          	addi	a0,a5,-2040 # ffffe808 <uart0>
ffff96c8:	fffff097          	auipc	ra,0xfffff
ffff96cc:	e34080e7          	jalr	ra,-460(ra) # ffff84fc <print_s>
ffff96d0:	ffffa7b7          	lui	a5,0xffffa
ffff96d4:	50878593          	addi	a1,a5,1288 # ffffa508 <__text_end+0x40>
ffff96d8:	fffff7b7          	lui	a5,0xfffff
ffff96dc:	80878513          	addi	a0,a5,-2040 # ffffe808 <uart0>
ffff96e0:	fffff097          	auipc	ra,0xfffff
ffff96e4:	e1c080e7          	jalr	ra,-484(ra) # ffff84fc <print_s>
ffff96e8:	ffffe7b7          	lui	a5,0xffffe
ffff96ec:	7fc7a703          	lw	a4,2044(a5) # ffffe7fc <User_Time>
ffff96f0:	06300793          	addi	a5,zero,99
ffff96f4:	04e7c863          	blt	a5,a4,ffff9744 <main+0x1178>
ffff96f8:	ffffb7b7          	lui	a5,0xffffb
ffff96fc:	9a478593          	addi	a1,a5,-1628 # ffffa9a4 <__text_end+0x4dc>
ffff9700:	fffff7b7          	lui	a5,0xfffff
ffff9704:	80878513          	addi	a0,a5,-2040 # ffffe808 <uart0>
ffff9708:	fffff097          	auipc	ra,0xfffff
ffff970c:	df4080e7          	jalr	ra,-524(ra) # ffff84fc <print_s>
ffff9710:	ffffb7b7          	lui	a5,0xffffb
ffff9714:	9dc78593          	addi	a1,a5,-1572 # ffffa9dc <__text_end+0x514>
ffff9718:	fffff7b7          	lui	a5,0xfffff
ffff971c:	80878513          	addi	a0,a5,-2040 # ffffe808 <uart0>
ffff9720:	fffff097          	auipc	ra,0xfffff
ffff9724:	ddc080e7          	jalr	ra,-548(ra) # ffff84fc <print_s>
ffff9728:	ffffa7b7          	lui	a5,0xffffa
ffff972c:	50878593          	addi	a1,a5,1288 # ffffa508 <__text_end+0x40>
ffff9730:	fffff7b7          	lui	a5,0xfffff
ffff9734:	80878513          	addi	a0,a5,-2040 # ffffe808 <uart0>
ffff9738:	fffff097          	auipc	ra,0xfffff
ffff973c:	dc4080e7          	jalr	ra,-572(ra) # ffff84fc <print_s>
ffff9740:	15c0006f          	jal	zero,ffff989c <main+0x12d0>
ffff9744:	ffffe7b7          	lui	a5,0xffffe
ffff9748:	7fc7a683          	lw	a3,2044(a5) # ffffe7fc <User_Time>
ffff974c:	0b012703          	lw	a4,176(sp)
ffff9750:	00070793          	addi	a5,a4,0
ffff9754:	00179793          	slli	a5,a5,0x1
ffff9758:	00e787b3          	add	a5,a5,a4
ffff975c:	00379793          	slli	a5,a5,0x3
ffff9760:	00e787b3          	add	a5,a5,a4
ffff9764:	00179793          	slli	a5,a5,0x1
ffff9768:	00078593          	addi	a1,a5,0
ffff976c:	00068513          	addi	a0,a3,0
ffff9770:	00001097          	auipc	ra,0x1
ffff9774:	a2c080e7          	jalr	ra,-1492(ra) # ffffa19c <__divsi3>
ffff9778:	00050793          	addi	a5,a0,0
ffff977c:	00078513          	addi	a0,a5,0
ffff9780:	00001097          	auipc	ra,0x1
ffff9784:	8ec080e7          	jalr	ra,-1812(ra) # ffffa06c <__floatsisf>
ffff9788:	00050713          	addi	a4,a0,0
ffff978c:	fffff7b7          	lui	a5,0xfffff
ffff9790:	80e7a023          	sw	a4,-2048(a5) # ffffe800 <Microseconds>
ffff9794:	ffffe7b7          	lui	a5,0xffffe
ffff9798:	7fc7a703          	lw	a4,2044(a5) # ffffe7fc <User_Time>
ffff979c:	02faf7b7          	lui	a5,0x2faf
ffff97a0:	00070593          	addi	a1,a4,0
ffff97a4:	08078513          	addi	a0,a5,128 # 2faf080 <__stack_top+0x2faf080>
ffff97a8:	00001097          	auipc	ra,0x1
ffff97ac:	9f4080e7          	jalr	ra,-1548(ra) # ffffa19c <__divsi3>
ffff97b0:	00050793          	addi	a5,a0,0
ffff97b4:	0af12623          	sw	a5,172(sp)
ffff97b8:	0b012583          	lw	a1,176(sp)
ffff97bc:	0ac12503          	lw	a0,172(sp)
ffff97c0:	00001097          	auipc	ra,0x1
ffff97c4:	9b8080e7          	jalr	ra,-1608(ra) # ffffa178 <__mulsi3>
ffff97c8:	00050793          	addi	a5,a0,0
ffff97cc:	00078513          	addi	a0,a5,0
ffff97d0:	00001097          	auipc	ra,0x1
ffff97d4:	89c080e7          	jalr	ra,-1892(ra) # ffffa06c <__floatsisf>
ffff97d8:	00050713          	addi	a4,a0,0
ffff97dc:	fffff7b7          	lui	a5,0xfffff
ffff97e0:	80e7a223          	sw	a4,-2044(a5) # ffffe804 <Dhrystones_Per_Second>
ffff97e4:	ffffb7b7          	lui	a5,0xffffb
ffff97e8:	a0078593          	addi	a1,a5,-1536 # ffffaa00 <__text_end+0x538>
ffff97ec:	fffff7b7          	lui	a5,0xfffff
ffff97f0:	80878513          	addi	a0,a5,-2040 # ffffe808 <uart0>
ffff97f4:	fffff097          	auipc	ra,0xfffff
ffff97f8:	d08080e7          	jalr	ra,-760(ra) # ffff84fc <print_s>
ffff97fc:	fffff7b7          	lui	a5,0xfffff
ffff9800:	8007a783          	lw	a5,-2048(a5) # ffffe800 <Microseconds>
ffff9804:	00078513          	addi	a0,a5,0
ffff9808:	00000097          	auipc	ra,0x0
ffff980c:	7f4080e7          	jalr	ra,2036(ra) # ffff9ffc <__fixsfsi>
ffff9810:	00050793          	addi	a5,a0,0
ffff9814:	00078593          	addi	a1,a5,0
ffff9818:	fffff7b7          	lui	a5,0xfffff
ffff981c:	80878513          	addi	a0,a5,-2040 # ffffe808 <uart0>
ffff9820:	fffff097          	auipc	ra,0xfffff
ffff9824:	d0c080e7          	jalr	ra,-756(ra) # ffff852c <print_i>
ffff9828:	ffffa7b7          	lui	a5,0xffffa
ffff982c:	50878593          	addi	a1,a5,1288 # ffffa508 <__text_end+0x40>
ffff9830:	fffff7b7          	lui	a5,0xfffff
ffff9834:	80878513          	addi	a0,a5,-2040 # ffffe808 <uart0>
ffff9838:	fffff097          	auipc	ra,0xfffff
ffff983c:	cc4080e7          	jalr	ra,-828(ra) # ffff84fc <print_s>
ffff9840:	ffffb7b7          	lui	a5,0xffffb
ffff9844:	a3078593          	addi	a1,a5,-1488 # ffffaa30 <__text_end+0x568>
ffff9848:	fffff7b7          	lui	a5,0xfffff
ffff984c:	80878513          	addi	a0,a5,-2040 # ffffe808 <uart0>
ffff9850:	fffff097          	auipc	ra,0xfffff
ffff9854:	cac080e7          	jalr	ra,-852(ra) # ffff84fc <print_s>
ffff9858:	fffff7b7          	lui	a5,0xfffff
ffff985c:	8047a783          	lw	a5,-2044(a5) # ffffe804 <Dhrystones_Per_Second>
ffff9860:	00078513          	addi	a0,a5,0
ffff9864:	00000097          	auipc	ra,0x0
ffff9868:	798080e7          	jalr	ra,1944(ra) # ffff9ffc <__fixsfsi>
ffff986c:	00050793          	addi	a5,a0,0
ffff9870:	00078593          	addi	a1,a5,0
ffff9874:	fffff7b7          	lui	a5,0xfffff
ffff9878:	80878513          	addi	a0,a5,-2040 # ffffe808 <uart0>
ffff987c:	fffff097          	auipc	ra,0xfffff
ffff9880:	cb0080e7          	jalr	ra,-848(ra) # ffff852c <print_i>
ffff9884:	ffffa7b7          	lui	a5,0xffffa
ffff9888:	50878593          	addi	a1,a5,1288 # ffffa508 <__text_end+0x40>
ffff988c:	fffff7b7          	lui	a5,0xfffff
ffff9890:	80878513          	addi	a0,a5,-2040 # ffffe808 <uart0>
ffff9894:	fffff097          	auipc	ra,0xfffff
ffff9898:	c68080e7          	jalr	ra,-920(ra) # ffff84fc <print_s>
ffff989c:	00000793          	addi	a5,zero,0
ffff98a0:	00078513          	addi	a0,a5,0
ffff98a4:	0cc12083          	lw	ra,204(sp)
ffff98a8:	0d010113          	addi	sp,sp,208
ffff98ac:	00008067          	jalr	zero,0(ra)

ffff98b0 <Proc_1>:
ffff98b0:	fd010113          	addi	sp,sp,-48
ffff98b4:	02112623          	sw	ra,44(sp)
ffff98b8:	00a12623          	sw	a0,12(sp)
ffff98bc:	00c12783          	lw	a5,12(sp)
ffff98c0:	0007a783          	lw	a5,0(a5)
ffff98c4:	00f12e23          	sw	a5,28(sp)
ffff98c8:	ffffe7b7          	lui	a5,0xffffe
ffff98cc:	7d87a703          	lw	a4,2008(a5) # ffffe7d8 <Ptr_Glob>
ffff98d0:	00c12783          	lw	a5,12(sp)
ffff98d4:	0007a783          	lw	a5,0(a5)
ffff98d8:	00072f83          	lw	t6,0(a4)
ffff98dc:	00472f03          	lw	t5,4(a4)
ffff98e0:	00872e83          	lw	t4,8(a4)
ffff98e4:	00c72e03          	lw	t3,12(a4)
ffff98e8:	01072303          	lw	t1,16(a4)
ffff98ec:	01472883          	lw	a7,20(a4)
ffff98f0:	01872803          	lw	a6,24(a4)
ffff98f4:	01c72503          	lw	a0,28(a4)
ffff98f8:	02072583          	lw	a1,32(a4)
ffff98fc:	02472603          	lw	a2,36(a4)
ffff9900:	02872683          	lw	a3,40(a4)
ffff9904:	02c72703          	lw	a4,44(a4)
ffff9908:	01f7a023          	sw	t6,0(a5)
ffff990c:	01e7a223          	sw	t5,4(a5)
ffff9910:	01d7a423          	sw	t4,8(a5)
ffff9914:	01c7a623          	sw	t3,12(a5)
ffff9918:	0067a823          	sw	t1,16(a5)
ffff991c:	0117aa23          	sw	a7,20(a5)
ffff9920:	0107ac23          	sw	a6,24(a5)
ffff9924:	00a7ae23          	sw	a0,28(a5)
ffff9928:	02b7a023          	sw	a1,32(a5)
ffff992c:	02c7a223          	sw	a2,36(a5)
ffff9930:	02d7a423          	sw	a3,40(a5)
ffff9934:	02e7a623          	sw	a4,44(a5)
ffff9938:	00c12783          	lw	a5,12(sp)
ffff993c:	00500713          	addi	a4,zero,5
ffff9940:	00e7a623          	sw	a4,12(a5)
ffff9944:	00c12783          	lw	a5,12(sp)
ffff9948:	00c7a703          	lw	a4,12(a5)
ffff994c:	01c12783          	lw	a5,28(sp)
ffff9950:	00e7a623          	sw	a4,12(a5)
ffff9954:	00c12783          	lw	a5,12(sp)
ffff9958:	0007a703          	lw	a4,0(a5)
ffff995c:	01c12783          	lw	a5,28(sp)
ffff9960:	00e7a023          	sw	a4,0(a5)
ffff9964:	01c12783          	lw	a5,28(sp)
ffff9968:	00078513          	addi	a0,a5,0
ffff996c:	00000097          	auipc	ra,0x0
ffff9970:	160080e7          	jalr	ra,352(ra) # ffff9acc <Proc_3>
ffff9974:	01c12783          	lw	a5,28(sp)
ffff9978:	0047a783          	lw	a5,4(a5)
ffff997c:	06079663          	bne	a5,zero,ffff99e8 <Proc_1+0x138>
ffff9980:	01c12783          	lw	a5,28(sp)
ffff9984:	00600713          	addi	a4,zero,6
ffff9988:	00e7a623          	sw	a4,12(a5)
ffff998c:	00c12783          	lw	a5,12(sp)
ffff9990:	0087a703          	lw	a4,8(a5)
ffff9994:	01c12783          	lw	a5,28(sp)
ffff9998:	00878793          	addi	a5,a5,8
ffff999c:	00078593          	addi	a1,a5,0
ffff99a0:	00070513          	addi	a0,a4,0
ffff99a4:	00000097          	auipc	ra,0x0
ffff99a8:	1f4080e7          	jalr	ra,500(ra) # ffff9b98 <Proc_6>
ffff99ac:	ffffe7b7          	lui	a5,0xffffe
ffff99b0:	7d87a783          	lw	a5,2008(a5) # ffffe7d8 <Ptr_Glob>
ffff99b4:	0007a703          	lw	a4,0(a5)
ffff99b8:	01c12783          	lw	a5,28(sp)
ffff99bc:	00e7a023          	sw	a4,0(a5)
ffff99c0:	01c12783          	lw	a5,28(sp)
ffff99c4:	00c7a703          	lw	a4,12(a5)
ffff99c8:	01c12783          	lw	a5,28(sp)
ffff99cc:	00c78793          	addi	a5,a5,12
ffff99d0:	00078613          	addi	a2,a5,0
ffff99d4:	00a00593          	addi	a1,zero,10
ffff99d8:	00070513          	addi	a0,a4,0
ffff99dc:	00000097          	auipc	ra,0x0
ffff99e0:	28c080e7          	jalr	ra,652(ra) # ffff9c68 <Proc_7>
ffff99e4:	0700006f          	jal	zero,ffff9a54 <Proc_1+0x1a4>
ffff99e8:	00c12783          	lw	a5,12(sp)
ffff99ec:	0007a703          	lw	a4,0(a5)
ffff99f0:	00c12783          	lw	a5,12(sp)
ffff99f4:	00072f83          	lw	t6,0(a4)
ffff99f8:	00472f03          	lw	t5,4(a4)
ffff99fc:	00872e83          	lw	t4,8(a4)
ffff9a00:	00c72e03          	lw	t3,12(a4)
ffff9a04:	01072303          	lw	t1,16(a4)
ffff9a08:	01472883          	lw	a7,20(a4)
ffff9a0c:	01872803          	lw	a6,24(a4)
ffff9a10:	01c72503          	lw	a0,28(a4)
ffff9a14:	02072583          	lw	a1,32(a4)
ffff9a18:	02472603          	lw	a2,36(a4)
ffff9a1c:	02872683          	lw	a3,40(a4)
ffff9a20:	02c72703          	lw	a4,44(a4)
ffff9a24:	01f7a023          	sw	t6,0(a5)
ffff9a28:	01e7a223          	sw	t5,4(a5)
ffff9a2c:	01d7a423          	sw	t4,8(a5)
ffff9a30:	01c7a623          	sw	t3,12(a5)
ffff9a34:	0067a823          	sw	t1,16(a5)
ffff9a38:	0117aa23          	sw	a7,20(a5)
ffff9a3c:	0107ac23          	sw	a6,24(a5)
ffff9a40:	00a7ae23          	sw	a0,28(a5)
ffff9a44:	02b7a023          	sw	a1,32(a5)
ffff9a48:	02c7a223          	sw	a2,36(a5)
ffff9a4c:	02d7a423          	sw	a3,40(a5)
ffff9a50:	02e7a623          	sw	a4,44(a5)
ffff9a54:	00000013          	addi	zero,zero,0
ffff9a58:	02c12083          	lw	ra,44(sp)
ffff9a5c:	03010113          	addi	sp,sp,48
ffff9a60:	00008067          	jalr	zero,0(ra)

ffff9a64 <Proc_2>:
ffff9a64:	fe010113          	addi	sp,sp,-32
ffff9a68:	00a12623          	sw	a0,12(sp)
ffff9a6c:	00c12783          	lw	a5,12(sp)
ffff9a70:	0007a783          	lw	a5,0(a5)
ffff9a74:	00a78793          	addi	a5,a5,10
ffff9a78:	00f12e23          	sw	a5,28(sp)
ffff9a7c:	ffffe7b7          	lui	a5,0xffffe
ffff9a80:	7e87c703          	lbu	a4,2024(a5) # ffffe7e8 <Ch_1_Glob>
ffff9a84:	04100793          	addi	a5,zero,65
ffff9a88:	02f71663          	bne	a4,a5,ffff9ab4 <Proc_2+0x50>
ffff9a8c:	01c12783          	lw	a5,28(sp)
ffff9a90:	fff78793          	addi	a5,a5,-1
ffff9a94:	00f12e23          	sw	a5,28(sp)
ffff9a98:	ffffe7b7          	lui	a5,0xffffe
ffff9a9c:	7e07a783          	lw	a5,2016(a5) # ffffe7e0 <Int_Glob>
ffff9aa0:	01c12703          	lw	a4,28(sp)
ffff9aa4:	40f70733          	sub	a4,a4,a5
ffff9aa8:	00c12783          	lw	a5,12(sp)
ffff9aac:	00e7a023          	sw	a4,0(a5)
ffff9ab0:	00012c23          	sw	zero,24(sp)
ffff9ab4:	01812783          	lw	a5,24(sp)
ffff9ab8:	fc0792e3          	bne	a5,zero,ffff9a7c <Proc_2+0x18>
ffff9abc:	00000013          	addi	zero,zero,0
ffff9ac0:	00000013          	addi	zero,zero,0
ffff9ac4:	02010113          	addi	sp,sp,32
ffff9ac8:	00008067          	jalr	zero,0(ra)

ffff9acc <Proc_3>:
ffff9acc:	fe010113          	addi	sp,sp,-32
ffff9ad0:	00112e23          	sw	ra,28(sp)
ffff9ad4:	00a12623          	sw	a0,12(sp)
ffff9ad8:	ffffe7b7          	lui	a5,0xffffe
ffff9adc:	7d87a783          	lw	a5,2008(a5) # ffffe7d8 <Ptr_Glob>
ffff9ae0:	00078c63          	beq	a5,zero,ffff9af8 <Proc_3+0x2c>
ffff9ae4:	ffffe7b7          	lui	a5,0xffffe
ffff9ae8:	7d87a783          	lw	a5,2008(a5) # ffffe7d8 <Ptr_Glob>
ffff9aec:	0007a703          	lw	a4,0(a5)
ffff9af0:	00c12783          	lw	a5,12(sp)
ffff9af4:	00e7a023          	sw	a4,0(a5)
ffff9af8:	ffffe7b7          	lui	a5,0xffffe
ffff9afc:	7e07a703          	lw	a4,2016(a5) # ffffe7e0 <Int_Glob>
ffff9b00:	ffffe7b7          	lui	a5,0xffffe
ffff9b04:	7d87a783          	lw	a5,2008(a5) # ffffe7d8 <Ptr_Glob>
ffff9b08:	00c78793          	addi	a5,a5,12
ffff9b0c:	00078613          	addi	a2,a5,0
ffff9b10:	00070593          	addi	a1,a4,0
ffff9b14:	00a00513          	addi	a0,zero,10
ffff9b18:	00000097          	auipc	ra,0x0
ffff9b1c:	150080e7          	jalr	ra,336(ra) # ffff9c68 <Proc_7>
ffff9b20:	00000013          	addi	zero,zero,0
ffff9b24:	01c12083          	lw	ra,28(sp)
ffff9b28:	02010113          	addi	sp,sp,32
ffff9b2c:	00008067          	jalr	zero,0(ra)

ffff9b30 <Proc_4>:
ffff9b30:	ff010113          	addi	sp,sp,-16
ffff9b34:	ffffe7b7          	lui	a5,0xffffe
ffff9b38:	7e87c783          	lbu	a5,2024(a5) # ffffe7e8 <Ch_1_Glob>
ffff9b3c:	fbf78793          	addi	a5,a5,-65
ffff9b40:	0017b793          	sltiu	a5,a5,1
ffff9b44:	0ff7f793          	andi	a5,a5,255
ffff9b48:	00f12623          	sw	a5,12(sp)
ffff9b4c:	ffffe7b7          	lui	a5,0xffffe
ffff9b50:	7e47a703          	lw	a4,2020(a5) # ffffe7e4 <Bool_Glob>
ffff9b54:	00c12783          	lw	a5,12(sp)
ffff9b58:	00f76733          	or	a4,a4,a5
ffff9b5c:	ffffe7b7          	lui	a5,0xffffe
ffff9b60:	7ee7a223          	sw	a4,2020(a5) # ffffe7e4 <Bool_Glob>
ffff9b64:	ffffe7b7          	lui	a5,0xffffe
ffff9b68:	04200713          	addi	a4,zero,66
ffff9b6c:	7ee784a3          	sb	a4,2025(a5) # ffffe7e9 <Ch_2_Glob>
ffff9b70:	00000013          	addi	zero,zero,0
ffff9b74:	01010113          	addi	sp,sp,16
ffff9b78:	00008067          	jalr	zero,0(ra)

ffff9b7c <Proc_5>:
ffff9b7c:	ffffe7b7          	lui	a5,0xffffe
ffff9b80:	04100713          	addi	a4,zero,65
ffff9b84:	7ee78423          	sb	a4,2024(a5) # ffffe7e8 <Ch_1_Glob>
ffff9b88:	ffffe7b7          	lui	a5,0xffffe
ffff9b8c:	7e07a223          	sw	zero,2020(a5) # ffffe7e4 <Bool_Glob>
ffff9b90:	00000013          	addi	zero,zero,0
ffff9b94:	00008067          	jalr	zero,0(ra)

ffff9b98 <Proc_6>:
ffff9b98:	fe010113          	addi	sp,sp,-32
ffff9b9c:	00112e23          	sw	ra,28(sp)
ffff9ba0:	00a12623          	sw	a0,12(sp)
ffff9ba4:	00b12423          	sw	a1,8(sp)
ffff9ba8:	00812783          	lw	a5,8(sp)
ffff9bac:	00c12703          	lw	a4,12(sp)
ffff9bb0:	00e7a023          	sw	a4,0(a5)
ffff9bb4:	00c12503          	lw	a0,12(sp)
ffff9bb8:	00000097          	auipc	ra,0x0
ffff9bbc:	410080e7          	jalr	ra,1040(ra) # ffff9fc8 <Func_3>
ffff9bc0:	00050793          	addi	a5,a0,0
ffff9bc4:	00079863          	bne	a5,zero,ffff9bd4 <Proc_6+0x3c>
ffff9bc8:	00812783          	lw	a5,8(sp)
ffff9bcc:	00300713          	addi	a4,zero,3
ffff9bd0:	00e7a023          	sw	a4,0(a5)
ffff9bd4:	00c12703          	lw	a4,12(sp)
ffff9bd8:	00400793          	addi	a5,zero,4
ffff9bdc:	06e7ee63          	bltu	a5,a4,ffff9c58 <Proc_6+0xc0>
ffff9be0:	00c12783          	lw	a5,12(sp)
ffff9be4:	00279713          	slli	a4,a5,0x2
ffff9be8:	ffffb7b7          	lui	a5,0xffffb
ffff9bec:	a6078793          	addi	a5,a5,-1440 # ffffaa60 <__text_end+0x598>
ffff9bf0:	00f707b3          	add	a5,a4,a5
ffff9bf4:	0007a783          	lw	a5,0(a5)
ffff9bf8:	00078067          	jalr	zero,0(a5)
ffff9bfc:	00812783          	lw	a5,8(sp)
ffff9c00:	0007a023          	sw	zero,0(a5)
ffff9c04:	0540006f          	jal	zero,ffff9c58 <Proc_6+0xc0>
ffff9c08:	ffffe7b7          	lui	a5,0xffffe
ffff9c0c:	7e07a703          	lw	a4,2016(a5) # ffffe7e0 <Int_Glob>
ffff9c10:	06400793          	addi	a5,zero,100
ffff9c14:	00e7d863          	bge	a5,a4,ffff9c24 <Proc_6+0x8c>
ffff9c18:	00812783          	lw	a5,8(sp)
ffff9c1c:	0007a023          	sw	zero,0(a5)
ffff9c20:	0380006f          	jal	zero,ffff9c58 <Proc_6+0xc0>
ffff9c24:	00812783          	lw	a5,8(sp)
ffff9c28:	00300713          	addi	a4,zero,3
ffff9c2c:	00e7a023          	sw	a4,0(a5)
ffff9c30:	0280006f          	jal	zero,ffff9c58 <Proc_6+0xc0>
ffff9c34:	00812783          	lw	a5,8(sp)
ffff9c38:	00100713          	addi	a4,zero,1
ffff9c3c:	00e7a023          	sw	a4,0(a5)
ffff9c40:	0180006f          	jal	zero,ffff9c58 <Proc_6+0xc0>
ffff9c44:	00812783          	lw	a5,8(sp)
ffff9c48:	00200713          	addi	a4,zero,2
ffff9c4c:	00e7a023          	sw	a4,0(a5)
ffff9c50:	0080006f          	jal	zero,ffff9c58 <Proc_6+0xc0>
ffff9c54:	00000013          	addi	zero,zero,0
ffff9c58:	00000013          	addi	zero,zero,0
ffff9c5c:	01c12083          	lw	ra,28(sp)
ffff9c60:	02010113          	addi	sp,sp,32
ffff9c64:	00008067          	jalr	zero,0(ra)

ffff9c68 <Proc_7>:
ffff9c68:	fe010113          	addi	sp,sp,-32
ffff9c6c:	00a12623          	sw	a0,12(sp)
ffff9c70:	00b12423          	sw	a1,8(sp)
ffff9c74:	00c12223          	sw	a2,4(sp)
ffff9c78:	00c12783          	lw	a5,12(sp)
ffff9c7c:	00278793          	addi	a5,a5,2
ffff9c80:	00f12e23          	sw	a5,28(sp)
ffff9c84:	00812703          	lw	a4,8(sp)
ffff9c88:	01c12783          	lw	a5,28(sp)
ffff9c8c:	00f70733          	add	a4,a4,a5
ffff9c90:	00412783          	lw	a5,4(sp)
ffff9c94:	00e7a023          	sw	a4,0(a5)
ffff9c98:	00000013          	addi	zero,zero,0
ffff9c9c:	02010113          	addi	sp,sp,32
ffff9ca0:	00008067          	jalr	zero,0(ra)

ffff9ca4 <Proc_8>:
ffff9ca4:	fe010113          	addi	sp,sp,-32
ffff9ca8:	00a12623          	sw	a0,12(sp)
ffff9cac:	00b12423          	sw	a1,8(sp)
ffff9cb0:	00c12223          	sw	a2,4(sp)
ffff9cb4:	00d12023          	sw	a3,0(sp)
ffff9cb8:	00412783          	lw	a5,4(sp)
ffff9cbc:	00578793          	addi	a5,a5,5
ffff9cc0:	00f12c23          	sw	a5,24(sp)
ffff9cc4:	01812783          	lw	a5,24(sp)
ffff9cc8:	00279793          	slli	a5,a5,0x2
ffff9ccc:	00c12703          	lw	a4,12(sp)
ffff9cd0:	00f707b3          	add	a5,a4,a5
ffff9cd4:	00012703          	lw	a4,0(sp)
ffff9cd8:	00e7a023          	sw	a4,0(a5)
ffff9cdc:	01812783          	lw	a5,24(sp)
ffff9ce0:	00279793          	slli	a5,a5,0x2
ffff9ce4:	00c12703          	lw	a4,12(sp)
ffff9ce8:	00f70733          	add	a4,a4,a5
ffff9cec:	01812783          	lw	a5,24(sp)
ffff9cf0:	00178793          	addi	a5,a5,1
ffff9cf4:	00279793          	slli	a5,a5,0x2
ffff9cf8:	00c12683          	lw	a3,12(sp)
ffff9cfc:	00f687b3          	add	a5,a3,a5
ffff9d00:	00072703          	lw	a4,0(a4)
ffff9d04:	00e7a023          	sw	a4,0(a5)
ffff9d08:	01812783          	lw	a5,24(sp)
ffff9d0c:	01e78793          	addi	a5,a5,30
ffff9d10:	00279793          	slli	a5,a5,0x2
ffff9d14:	00c12703          	lw	a4,12(sp)
ffff9d18:	00f707b3          	add	a5,a4,a5
ffff9d1c:	01812703          	lw	a4,24(sp)
ffff9d20:	00e7a023          	sw	a4,0(a5)
ffff9d24:	01812783          	lw	a5,24(sp)
ffff9d28:	00f12e23          	sw	a5,28(sp)
ffff9d2c:	04c0006f          	jal	zero,ffff9d78 <Proc_8+0xd4>
ffff9d30:	01812703          	lw	a4,24(sp)
ffff9d34:	00070793          	addi	a5,a4,0
ffff9d38:	00179793          	slli	a5,a5,0x1
ffff9d3c:	00e787b3          	add	a5,a5,a4
ffff9d40:	00379793          	slli	a5,a5,0x3
ffff9d44:	00e787b3          	add	a5,a5,a4
ffff9d48:	00379793          	slli	a5,a5,0x3
ffff9d4c:	00078713          	addi	a4,a5,0
ffff9d50:	00812783          	lw	a5,8(sp)
ffff9d54:	00e78733          	add	a4,a5,a4
ffff9d58:	01c12783          	lw	a5,28(sp)
ffff9d5c:	00279793          	slli	a5,a5,0x2
ffff9d60:	00f707b3          	add	a5,a4,a5
ffff9d64:	01812703          	lw	a4,24(sp)
ffff9d68:	00e7a023          	sw	a4,0(a5)
ffff9d6c:	01c12783          	lw	a5,28(sp)
ffff9d70:	00178793          	addi	a5,a5,1
ffff9d74:	00f12e23          	sw	a5,28(sp)
ffff9d78:	01812783          	lw	a5,24(sp)
ffff9d7c:	00178793          	addi	a5,a5,1
ffff9d80:	01c12703          	lw	a4,28(sp)
ffff9d84:	fae7d6e3          	bge	a5,a4,ffff9d30 <Proc_8+0x8c>
ffff9d88:	01812703          	lw	a4,24(sp)
ffff9d8c:	00070793          	addi	a5,a4,0
ffff9d90:	00179793          	slli	a5,a5,0x1
ffff9d94:	00e787b3          	add	a5,a5,a4
ffff9d98:	00379793          	slli	a5,a5,0x3
ffff9d9c:	00e787b3          	add	a5,a5,a4
ffff9da0:	00379793          	slli	a5,a5,0x3
ffff9da4:	00078713          	addi	a4,a5,0
ffff9da8:	00812783          	lw	a5,8(sp)
ffff9dac:	00e78733          	add	a4,a5,a4
ffff9db0:	01812783          	lw	a5,24(sp)
ffff9db4:	fff78793          	addi	a5,a5,-1
ffff9db8:	00279793          	slli	a5,a5,0x2
ffff9dbc:	00f707b3          	add	a5,a4,a5
ffff9dc0:	0007a603          	lw	a2,0(a5)
ffff9dc4:	01812703          	lw	a4,24(sp)
ffff9dc8:	00070793          	addi	a5,a4,0
ffff9dcc:	00179793          	slli	a5,a5,0x1
ffff9dd0:	00e787b3          	add	a5,a5,a4
ffff9dd4:	00379793          	slli	a5,a5,0x3
ffff9dd8:	00e787b3          	add	a5,a5,a4
ffff9ddc:	00379793          	slli	a5,a5,0x3
ffff9de0:	00078713          	addi	a4,a5,0
ffff9de4:	00812783          	lw	a5,8(sp)
ffff9de8:	00e786b3          	add	a3,a5,a4
ffff9dec:	01812783          	lw	a5,24(sp)
ffff9df0:	fff78793          	addi	a5,a5,-1
ffff9df4:	00160713          	addi	a4,a2,1
ffff9df8:	00279793          	slli	a5,a5,0x2
ffff9dfc:	00f687b3          	add	a5,a3,a5
ffff9e00:	00e7a023          	sw	a4,0(a5)
ffff9e04:	01812783          	lw	a5,24(sp)
ffff9e08:	00279793          	slli	a5,a5,0x2
ffff9e0c:	00c12703          	lw	a4,12(sp)
ffff9e10:	00f70633          	add	a2,a4,a5
ffff9e14:	01812703          	lw	a4,24(sp)
ffff9e18:	00070793          	addi	a5,a4,0
ffff9e1c:	00179793          	slli	a5,a5,0x1
ffff9e20:	00e787b3          	add	a5,a5,a4
ffff9e24:	00379793          	slli	a5,a5,0x3
ffff9e28:	00e787b3          	add	a5,a5,a4
ffff9e2c:	00379793          	slli	a5,a5,0x3
ffff9e30:	00078713          	addi	a4,a5,0
ffff9e34:	000017b7          	lui	a5,0x1
ffff9e38:	fa078793          	addi	a5,a5,-96 # fa0 <__stack_top+0xfa0>
ffff9e3c:	00f707b3          	add	a5,a4,a5
ffff9e40:	00812703          	lw	a4,8(sp)
ffff9e44:	00f706b3          	add	a3,a4,a5
ffff9e48:	00062703          	lw	a4,0(a2)
ffff9e4c:	01812783          	lw	a5,24(sp)
ffff9e50:	00279793          	slli	a5,a5,0x2
ffff9e54:	00f687b3          	add	a5,a3,a5
ffff9e58:	00e7a023          	sw	a4,0(a5)
ffff9e5c:	ffffe7b7          	lui	a5,0xffffe
ffff9e60:	00500713          	addi	a4,zero,5
ffff9e64:	7ee7a023          	sw	a4,2016(a5) # ffffe7e0 <Int_Glob>
ffff9e68:	00000013          	addi	zero,zero,0
ffff9e6c:	02010113          	addi	sp,sp,32
ffff9e70:	00008067          	jalr	zero,0(ra)

ffff9e74 <Func_1>:
ffff9e74:	fe010113          	addi	sp,sp,-32
ffff9e78:	00050793          	addi	a5,a0,0
ffff9e7c:	00058713          	addi	a4,a1,0 # c0002000 <__stack_top+0xc0002000>
ffff9e80:	00f10623          	sb	a5,12(sp)
ffff9e84:	00070793          	addi	a5,a4,0
ffff9e88:	00f10423          	sb	a5,8(sp)
ffff9e8c:	00c14783          	lbu	a5,12(sp)
ffff9e90:	00f10fa3          	sb	a5,31(sp)
ffff9e94:	01f14783          	lbu	a5,31(sp)
ffff9e98:	00f10f23          	sb	a5,30(sp)
ffff9e9c:	01e14703          	lbu	a4,30(sp)
ffff9ea0:	00814783          	lbu	a5,8(sp)
ffff9ea4:	00f70663          	beq	a4,a5,ffff9eb0 <Func_1+0x3c>
ffff9ea8:	00000793          	addi	a5,zero,0
ffff9eac:	0140006f          	jal	zero,ffff9ec0 <Func_1+0x4c>
ffff9eb0:	ffffe7b7          	lui	a5,0xffffe
ffff9eb4:	01f14703          	lbu	a4,31(sp)
ffff9eb8:	7ee78423          	sb	a4,2024(a5) # ffffe7e8 <Ch_1_Glob>
ffff9ebc:	00100793          	addi	a5,zero,1
ffff9ec0:	00078513          	addi	a0,a5,0
ffff9ec4:	02010113          	addi	sp,sp,32
ffff9ec8:	00008067          	jalr	zero,0(ra)

ffff9ecc <Func_2>:
ffff9ecc:	fd010113          	addi	sp,sp,-48
ffff9ed0:	02112623          	sw	ra,44(sp)
ffff9ed4:	00a12623          	sw	a0,12(sp)
ffff9ed8:	00b12423          	sw	a1,8(sp)
ffff9edc:	00200793          	addi	a5,zero,2
ffff9ee0:	00f12e23          	sw	a5,28(sp)
ffff9ee4:	0580006f          	jal	zero,ffff9f3c <Func_2+0x70>
ffff9ee8:	01c12783          	lw	a5,28(sp)
ffff9eec:	00c12703          	lw	a4,12(sp)
ffff9ef0:	00f707b3          	add	a5,a4,a5
ffff9ef4:	0007c783          	lbu	a5,0(a5)
ffff9ef8:	00078693          	addi	a3,a5,0
ffff9efc:	01c12783          	lw	a5,28(sp)
ffff9f00:	00178793          	addi	a5,a5,1
ffff9f04:	00812703          	lw	a4,8(sp)
ffff9f08:	00f707b3          	add	a5,a4,a5
ffff9f0c:	0007c783          	lbu	a5,0(a5)
ffff9f10:	00078593          	addi	a1,a5,0
ffff9f14:	00068513          	addi	a0,a3,0
ffff9f18:	00000097          	auipc	ra,0x0
ffff9f1c:	f5c080e7          	jalr	ra,-164(ra) # ffff9e74 <Func_1>
ffff9f20:	00050793          	addi	a5,a0,0
ffff9f24:	00079c63          	bne	a5,zero,ffff9f3c <Func_2+0x70>
ffff9f28:	04100793          	addi	a5,zero,65
ffff9f2c:	00f10da3          	sb	a5,27(sp)
ffff9f30:	01c12783          	lw	a5,28(sp)
ffff9f34:	00178793          	addi	a5,a5,1
ffff9f38:	00f12e23          	sw	a5,28(sp)
ffff9f3c:	01c12703          	lw	a4,28(sp)
ffff9f40:	00200793          	addi	a5,zero,2
ffff9f44:	fae7d2e3          	bge	a5,a4,ffff9ee8 <Func_2+0x1c>
ffff9f48:	01b14703          	lbu	a4,27(sp)
ffff9f4c:	05600793          	addi	a5,zero,86
ffff9f50:	00e7fc63          	bgeu	a5,a4,ffff9f68 <Func_2+0x9c>
ffff9f54:	01b14703          	lbu	a4,27(sp)
ffff9f58:	05900793          	addi	a5,zero,89
ffff9f5c:	00e7e663          	bltu	a5,a4,ffff9f68 <Func_2+0x9c>
ffff9f60:	00700793          	addi	a5,zero,7
ffff9f64:	00f12e23          	sw	a5,28(sp)
ffff9f68:	01b14703          	lbu	a4,27(sp)
ffff9f6c:	05200793          	addi	a5,zero,82
ffff9f70:	00f71663          	bne	a4,a5,ffff9f7c <Func_2+0xb0>
ffff9f74:	00100793          	addi	a5,zero,1
ffff9f78:	0400006f          	jal	zero,ffff9fb8 <Func_2+0xec>
ffff9f7c:	00812583          	lw	a1,8(sp)
ffff9f80:	00c12503          	lw	a0,12(sp)
ffff9f84:	00000097          	auipc	ra,0x0
ffff9f88:	3c8080e7          	jalr	ra,968(ra) # ffffa34c <strcmp>
ffff9f8c:	00050793          	addi	a5,a0,0
ffff9f90:	02f05263          	bge	zero,a5,ffff9fb4 <Func_2+0xe8>
ffff9f94:	01c12783          	lw	a5,28(sp)
ffff9f98:	00778793          	addi	a5,a5,7
ffff9f9c:	00f12e23          	sw	a5,28(sp)
ffff9fa0:	ffffe7b7          	lui	a5,0xffffe
ffff9fa4:	01c12703          	lw	a4,28(sp)
ffff9fa8:	7ee7a023          	sw	a4,2016(a5) # ffffe7e0 <Int_Glob>
ffff9fac:	00100793          	addi	a5,zero,1
ffff9fb0:	0080006f          	jal	zero,ffff9fb8 <Func_2+0xec>
ffff9fb4:	00000793          	addi	a5,zero,0
ffff9fb8:	00078513          	addi	a0,a5,0
ffff9fbc:	02c12083          	lw	ra,44(sp)
ffff9fc0:	03010113          	addi	sp,sp,48
ffff9fc4:	00008067          	jalr	zero,0(ra)

ffff9fc8 <Func_3>:
ffff9fc8:	fe010113          	addi	sp,sp,-32
ffff9fcc:	00a12623          	sw	a0,12(sp)
ffff9fd0:	00c12783          	lw	a5,12(sp)
ffff9fd4:	00f12e23          	sw	a5,28(sp)
ffff9fd8:	01c12703          	lw	a4,28(sp)
ffff9fdc:	00200793          	addi	a5,zero,2
ffff9fe0:	00f71663          	bne	a4,a5,ffff9fec <Func_3+0x24>
ffff9fe4:	00100793          	addi	a5,zero,1
ffff9fe8:	0080006f          	jal	zero,ffff9ff0 <Func_3+0x28>
ffff9fec:	00000793          	addi	a5,zero,0
ffff9ff0:	00078513          	addi	a0,a5,0
ffff9ff4:	02010113          	addi	sp,sp,32
ffff9ff8:	00008067          	jalr	zero,0(ra)

ffff9ffc <__fixsfsi>:
ffff9ffc:	00800637          	lui	a2,0x800
ffffa000:	01755713          	srli	a4,a0,0x17
ffffa004:	fff60793          	addi	a5,a2,-1 # 7fffff <__stack_top+0x7fffff>
ffffa008:	0ff77713          	andi	a4,a4,255
ffffa00c:	07e00593          	addi	a1,zero,126
ffffa010:	00a7f7b3          	and	a5,a5,a0
ffffa014:	01f55693          	srli	a3,a0,0x1f
ffffa018:	04e5d663          	bge	a1,a4,ffffa064 <__fixsfsi+0x68>
ffffa01c:	09d00593          	addi	a1,zero,157
ffffa020:	00e5da63          	bge	a1,a4,ffffa034 <__fixsfsi+0x38>
ffffa024:	80000537          	lui	a0,0x80000
ffffa028:	fff50513          	addi	a0,a0,-1 # 7fffffff <__stack_top+0x7fffffff>
ffffa02c:	00a68533          	add	a0,a3,a0
ffffa030:	00008067          	jalr	zero,0(ra)
ffffa034:	00c7e533          	or	a0,a5,a2
ffffa038:	09500793          	addi	a5,zero,149
ffffa03c:	00e7dc63          	bge	a5,a4,ffffa054 <__fixsfsi+0x58>
ffffa040:	f6a70713          	addi	a4,a4,-150
ffffa044:	00e51533          	sll	a0,a0,a4
ffffa048:	02068063          	beq	a3,zero,ffffa068 <__fixsfsi+0x6c>
ffffa04c:	40a00533          	sub	a0,zero,a0
ffffa050:	00008067          	jalr	zero,0(ra)
ffffa054:	09600793          	addi	a5,zero,150
ffffa058:	40e787b3          	sub	a5,a5,a4
ffffa05c:	00f55533          	srl	a0,a0,a5
ffffa060:	fe9ff06f          	jal	zero,ffffa048 <__fixsfsi+0x4c>
ffffa064:	00000513          	addi	a0,zero,0
ffffa068:	00008067          	jalr	zero,0(ra)

ffffa06c <__floatsisf>:
ffffa06c:	ff010113          	addi	sp,sp,-16
ffffa070:	00112623          	sw	ra,12(sp)
ffffa074:	00812423          	sw	s0,8(sp)
ffffa078:	00912223          	sw	s1,4(sp)
ffffa07c:	00050793          	addi	a5,a0,0
ffffa080:	0e050263          	beq	a0,zero,ffffa164 <__floatsisf+0xf8>
ffffa084:	41f55713          	srai	a4,a0,0x1f
ffffa088:	00a74433          	xor	s0,a4,a0
ffffa08c:	40e40433          	sub	s0,s0,a4
ffffa090:	01f55493          	srli	s1,a0,0x1f
ffffa094:	00040513          	addi	a0,s0,0
ffffa098:	00000097          	auipc	ra,0x0
ffffa09c:	1b8080e7          	jalr	ra,440(ra) # ffffa250 <__clzsi2>
ffffa0a0:	09e00793          	addi	a5,zero,158
ffffa0a4:	40a787b3          	sub	a5,a5,a0
ffffa0a8:	09600713          	addi	a4,zero,150
ffffa0ac:	04f74063          	blt	a4,a5,ffffa0ec <__floatsisf+0x80>
ffffa0b0:	00800713          	addi	a4,zero,8
ffffa0b4:	0ae50e63          	beq	a0,a4,ffffa170 <__floatsisf+0x104>
ffffa0b8:	ff850513          	addi	a0,a0,-8
ffffa0bc:	00a41433          	sll	s0,s0,a0
ffffa0c0:	00941413          	slli	s0,s0,0x9
ffffa0c4:	00945413          	srli	s0,s0,0x9
ffffa0c8:	01779793          	slli	a5,a5,0x17
ffffa0cc:	00c12083          	lw	ra,12(sp)
ffffa0d0:	0087e7b3          	or	a5,a5,s0
ffffa0d4:	00812403          	lw	s0,8(sp)
ffffa0d8:	01f49513          	slli	a0,s1,0x1f
ffffa0dc:	00a7e533          	or	a0,a5,a0
ffffa0e0:	00412483          	lw	s1,4(sp)
ffffa0e4:	01010113          	addi	sp,sp,16
ffffa0e8:	00008067          	jalr	zero,0(ra)
ffffa0ec:	09900713          	addi	a4,zero,153
ffffa0f0:	06f75463          	bge	a4,a5,ffffa158 <__floatsisf+0xec>
ffffa0f4:	00500713          	addi	a4,zero,5
ffffa0f8:	40a70733          	sub	a4,a4,a0
ffffa0fc:	01b50693          	addi	a3,a0,27
ffffa100:	00e45733          	srl	a4,s0,a4
ffffa104:	00d41433          	sll	s0,s0,a3
ffffa108:	00803433          	sltu	s0,zero,s0
ffffa10c:	00876733          	or	a4,a4,s0
ffffa110:	fc000437          	lui	s0,0xfc000
ffffa114:	fff40413          	addi	s0,s0,-1 # fbffffff <__stack_top+0xfbffffff>
ffffa118:	00777693          	andi	a3,a4,7
ffffa11c:	00877433          	and	s0,a4,s0
ffffa120:	00068a63          	beq	a3,zero,ffffa134 <__floatsisf+0xc8>
ffffa124:	00f77713          	andi	a4,a4,15
ffffa128:	00400693          	addi	a3,zero,4
ffffa12c:	00d70463          	beq	a4,a3,ffffa134 <__floatsisf+0xc8>
ffffa130:	00440413          	addi	s0,s0,4
ffffa134:	00541713          	slli	a4,s0,0x5
ffffa138:	00075c63          	bge	a4,zero,ffffa150 <__floatsisf+0xe4>
ffffa13c:	fc0007b7          	lui	a5,0xfc000
ffffa140:	fff78793          	addi	a5,a5,-1 # fbffffff <__stack_top+0xfbffffff>
ffffa144:	00f47433          	and	s0,s0,a5
ffffa148:	09f00793          	addi	a5,zero,159
ffffa14c:	40a787b3          	sub	a5,a5,a0
ffffa150:	00345413          	srli	s0,s0,0x3
ffffa154:	f6dff06f          	jal	zero,ffffa0c0 <__floatsisf+0x54>
ffffa158:	ffb50713          	addi	a4,a0,-5
ffffa15c:	00e41733          	sll	a4,s0,a4
ffffa160:	fb1ff06f          	jal	zero,ffffa110 <__floatsisf+0xa4>
ffffa164:	00000493          	addi	s1,zero,0
ffffa168:	00000413          	addi	s0,zero,0
ffffa16c:	f55ff06f          	jal	zero,ffffa0c0 <__floatsisf+0x54>
ffffa170:	09600793          	addi	a5,zero,150
ffffa174:	f4dff06f          	jal	zero,ffffa0c0 <__floatsisf+0x54>

ffffa178 <__mulsi3>:
ffffa178:	00050613          	addi	a2,a0,0
ffffa17c:	00000513          	addi	a0,zero,0
ffffa180:	0015f693          	andi	a3,a1,1
ffffa184:	00068463          	beq	a3,zero,ffffa18c <__mulsi3+0x14>
ffffa188:	00c50533          	add	a0,a0,a2
ffffa18c:	0015d593          	srli	a1,a1,0x1
ffffa190:	00161613          	slli	a2,a2,0x1
ffffa194:	fe0596e3          	bne	a1,zero,ffffa180 <__mulsi3+0x8>
ffffa198:	00008067          	jalr	zero,0(ra)

ffffa19c <__divsi3>:
ffffa19c:	06054063          	blt	a0,zero,ffffa1fc <__umodsi3+0x10>
ffffa1a0:	0605c663          	blt	a1,zero,ffffa20c <__umodsi3+0x20>

ffffa1a4 <__hidden___udivsi3>:
ffffa1a4:	00058613          	addi	a2,a1,0
ffffa1a8:	00050593          	addi	a1,a0,0
ffffa1ac:	fff00513          	addi	a0,zero,-1
ffffa1b0:	02060c63          	beq	a2,zero,ffffa1e8 <__hidden___udivsi3+0x44>
ffffa1b4:	00100693          	addi	a3,zero,1
ffffa1b8:	00b67a63          	bgeu	a2,a1,ffffa1cc <__hidden___udivsi3+0x28>
ffffa1bc:	00c05863          	bge	zero,a2,ffffa1cc <__hidden___udivsi3+0x28>
ffffa1c0:	00161613          	slli	a2,a2,0x1
ffffa1c4:	00169693          	slli	a3,a3,0x1
ffffa1c8:	feb66ae3          	bltu	a2,a1,ffffa1bc <__hidden___udivsi3+0x18>
ffffa1cc:	00000513          	addi	a0,zero,0
ffffa1d0:	00c5e663          	bltu	a1,a2,ffffa1dc <__hidden___udivsi3+0x38>
ffffa1d4:	40c585b3          	sub	a1,a1,a2
ffffa1d8:	00d56533          	or	a0,a0,a3
ffffa1dc:	0016d693          	srli	a3,a3,0x1
ffffa1e0:	00165613          	srli	a2,a2,0x1
ffffa1e4:	fe0696e3          	bne	a3,zero,ffffa1d0 <__hidden___udivsi3+0x2c>
ffffa1e8:	00008067          	jalr	zero,0(ra)

ffffa1ec <__umodsi3>:
ffffa1ec:	00008293          	addi	t0,ra,0
ffffa1f0:	fb5ff0ef          	jal	ra,ffffa1a4 <__hidden___udivsi3>
ffffa1f4:	00058513          	addi	a0,a1,0
ffffa1f8:	00028067          	jalr	zero,0(t0)
ffffa1fc:	40a00533          	sub	a0,zero,a0
ffffa200:	00b04863          	blt	zero,a1,ffffa210 <__umodsi3+0x24>
ffffa204:	40b005b3          	sub	a1,zero,a1
ffffa208:	f9dff06f          	jal	zero,ffffa1a4 <__hidden___udivsi3>
ffffa20c:	40b005b3          	sub	a1,zero,a1
ffffa210:	00008293          	addi	t0,ra,0
ffffa214:	f91ff0ef          	jal	ra,ffffa1a4 <__hidden___udivsi3>
ffffa218:	40a00533          	sub	a0,zero,a0
ffffa21c:	00028067          	jalr	zero,0(t0)

ffffa220 <__modsi3>:
ffffa220:	00008293          	addi	t0,ra,0
ffffa224:	0005ca63          	blt	a1,zero,ffffa238 <__modsi3+0x18>
ffffa228:	00054c63          	blt	a0,zero,ffffa240 <__modsi3+0x20>
ffffa22c:	f79ff0ef          	jal	ra,ffffa1a4 <__hidden___udivsi3>
ffffa230:	00058513          	addi	a0,a1,0
ffffa234:	00028067          	jalr	zero,0(t0)
ffffa238:	40b005b3          	sub	a1,zero,a1
ffffa23c:	fe0558e3          	bge	a0,zero,ffffa22c <__modsi3+0xc>
ffffa240:	40a00533          	sub	a0,zero,a0
ffffa244:	f61ff0ef          	jal	ra,ffffa1a4 <__hidden___udivsi3>
ffffa248:	40b00533          	sub	a0,zero,a1
ffffa24c:	00028067          	jalr	zero,0(t0)

ffffa250 <__clzsi2>:
ffffa250:	000107b7          	lui	a5,0x10
ffffa254:	02f57a63          	bgeu	a0,a5,ffffa288 <__clzsi2+0x38>
ffffa258:	10053793          	sltiu	a5,a0,256
ffffa25c:	0017b793          	sltiu	a5,a5,1
ffffa260:	00379793          	slli	a5,a5,0x3
ffffa264:	ffffb737          	lui	a4,0xffffb
ffffa268:	02000693          	addi	a3,zero,32
ffffa26c:	40f686b3          	sub	a3,a3,a5
ffffa270:	00f55533          	srl	a0,a0,a5
ffffa274:	a7470793          	addi	a5,a4,-1420 # ffffaa74 <__clz_tab>
ffffa278:	00a787b3          	add	a5,a5,a0
ffffa27c:	0007c503          	lbu	a0,0(a5) # 10000 <__stack_top+0x10000>
ffffa280:	40a68533          	sub	a0,a3,a0
ffffa284:	00008067          	jalr	zero,0(ra)
ffffa288:	01000737          	lui	a4,0x1000
ffffa28c:	01800793          	addi	a5,zero,24
ffffa290:	fce57ae3          	bgeu	a0,a4,ffffa264 <__clzsi2+0x14>
ffffa294:	01000793          	addi	a5,zero,16
ffffa298:	fcdff06f          	jal	zero,ffffa264 <__clzsi2+0x14>

ffffa29c <strcpy>:
ffffa29c:	00b567b3          	or	a5,a0,a1
ffffa2a0:	0037f793          	andi	a5,a5,3
ffffa2a4:	08079263          	bne	a5,zero,ffffa328 <strcpy+0x8c>
ffffa2a8:	0005a703          	lw	a4,0(a1)
ffffa2ac:	7f7f86b7          	lui	a3,0x7f7f8
ffffa2b0:	f7f68693          	addi	a3,a3,-129 # 7f7f7f7f <__stack_top+0x7f7f7f7f>
ffffa2b4:	00d777b3          	and	a5,a4,a3
ffffa2b8:	00d787b3          	add	a5,a5,a3
ffffa2bc:	00e7e7b3          	or	a5,a5,a4
ffffa2c0:	00d7e7b3          	or	a5,a5,a3
ffffa2c4:	fff00613          	addi	a2,zero,-1
ffffa2c8:	06c79e63          	bne	a5,a2,ffffa344 <strcpy+0xa8>
ffffa2cc:	00050613          	addi	a2,a0,0
ffffa2d0:	fff00813          	addi	a6,zero,-1
ffffa2d4:	00e62023          	sw	a4,0(a2)
ffffa2d8:	0045a703          	lw	a4,4(a1)
ffffa2dc:	00458593          	addi	a1,a1,4
ffffa2e0:	00460613          	addi	a2,a2,4
ffffa2e4:	00d777b3          	and	a5,a4,a3
ffffa2e8:	00d787b3          	add	a5,a5,a3
ffffa2ec:	00e7e7b3          	or	a5,a5,a4
ffffa2f0:	00d7e7b3          	or	a5,a5,a3
ffffa2f4:	ff0780e3          	beq	a5,a6,ffffa2d4 <strcpy+0x38>
ffffa2f8:	0005c783          	lbu	a5,0(a1)
ffffa2fc:	0015c703          	lbu	a4,1(a1)
ffffa300:	0025c683          	lbu	a3,2(a1)
ffffa304:	00f60023          	sb	a5,0(a2)
ffffa308:	00078a63          	beq	a5,zero,ffffa31c <strcpy+0x80>
ffffa30c:	00e600a3          	sb	a4,1(a2)
ffffa310:	00070663          	beq	a4,zero,ffffa31c <strcpy+0x80>
ffffa314:	00d60123          	sb	a3,2(a2)
ffffa318:	00069463          	bne	a3,zero,ffffa320 <strcpy+0x84>
ffffa31c:	00008067          	jalr	zero,0(ra)
ffffa320:	000601a3          	sb	zero,3(a2)
ffffa324:	00008067          	jalr	zero,0(ra)
ffffa328:	00050793          	addi	a5,a0,0
ffffa32c:	0005c703          	lbu	a4,0(a1)
ffffa330:	00178793          	addi	a5,a5,1
ffffa334:	00158593          	addi	a1,a1,1
ffffa338:	fee78fa3          	sb	a4,-1(a5)
ffffa33c:	fe0718e3          	bne	a4,zero,ffffa32c <strcpy+0x90>
ffffa340:	00008067          	jalr	zero,0(ra)
ffffa344:	00050613          	addi	a2,a0,0
ffffa348:	fb1ff06f          	jal	zero,ffffa2f8 <strcpy+0x5c>

ffffa34c <strcmp>:
ffffa34c:	00b56733          	or	a4,a0,a1
ffffa350:	fff00393          	addi	t2,zero,-1
ffffa354:	00377713          	andi	a4,a4,3
ffffa358:	10071063          	bne	a4,zero,ffffa458 <strcmp+0x10c>
ffffa35c:	7f7f87b7          	lui	a5,0x7f7f8
ffffa360:	f7f78793          	addi	a5,a5,-129 # 7f7f7f7f <__stack_top+0x7f7f7f7f>
ffffa364:	00052603          	lw	a2,0(a0)
ffffa368:	0005a683          	lw	a3,0(a1)
ffffa36c:	00f672b3          	and	t0,a2,a5
ffffa370:	00f66333          	or	t1,a2,a5
ffffa374:	00f282b3          	add	t0,t0,a5
ffffa378:	0062e2b3          	or	t0,t0,t1
ffffa37c:	10729263          	bne	t0,t2,ffffa480 <strcmp+0x134>
ffffa380:	08d61663          	bne	a2,a3,ffffa40c <strcmp+0xc0>
ffffa384:	00452603          	lw	a2,4(a0)
ffffa388:	0045a683          	lw	a3,4(a1)
ffffa38c:	00f672b3          	and	t0,a2,a5
ffffa390:	00f66333          	or	t1,a2,a5
ffffa394:	00f282b3          	add	t0,t0,a5
ffffa398:	0062e2b3          	or	t0,t0,t1
ffffa39c:	0c729e63          	bne	t0,t2,ffffa478 <strcmp+0x12c>
ffffa3a0:	06d61663          	bne	a2,a3,ffffa40c <strcmp+0xc0>
ffffa3a4:	00852603          	lw	a2,8(a0)
ffffa3a8:	0085a683          	lw	a3,8(a1)
ffffa3ac:	00f672b3          	and	t0,a2,a5
ffffa3b0:	00f66333          	or	t1,a2,a5
ffffa3b4:	00f282b3          	add	t0,t0,a5
ffffa3b8:	0062e2b3          	or	t0,t0,t1
ffffa3bc:	0c729863          	bne	t0,t2,ffffa48c <strcmp+0x140>
ffffa3c0:	04d61663          	bne	a2,a3,ffffa40c <strcmp+0xc0>
ffffa3c4:	00c52603          	lw	a2,12(a0)
ffffa3c8:	00c5a683          	lw	a3,12(a1)
ffffa3cc:	00f672b3          	and	t0,a2,a5
ffffa3d0:	00f66333          	or	t1,a2,a5
ffffa3d4:	00f282b3          	add	t0,t0,a5
ffffa3d8:	0062e2b3          	or	t0,t0,t1
ffffa3dc:	0c729263          	bne	t0,t2,ffffa4a0 <strcmp+0x154>
ffffa3e0:	02d61663          	bne	a2,a3,ffffa40c <strcmp+0xc0>
ffffa3e4:	01052603          	lw	a2,16(a0)
ffffa3e8:	0105a683          	lw	a3,16(a1)
ffffa3ec:	00f672b3          	and	t0,a2,a5
ffffa3f0:	00f66333          	or	t1,a2,a5
ffffa3f4:	00f282b3          	add	t0,t0,a5
ffffa3f8:	0062e2b3          	or	t0,t0,t1
ffffa3fc:	0a729c63          	bne	t0,t2,ffffa4b4 <strcmp+0x168>
ffffa400:	01450513          	addi	a0,a0,20
ffffa404:	01458593          	addi	a1,a1,20
ffffa408:	f4d60ee3          	beq	a2,a3,ffffa364 <strcmp+0x18>
ffffa40c:	01061713          	slli	a4,a2,0x10
ffffa410:	01069793          	slli	a5,a3,0x10
ffffa414:	00f71e63          	bne	a4,a5,ffffa430 <strcmp+0xe4>
ffffa418:	01065713          	srli	a4,a2,0x10
ffffa41c:	0106d793          	srli	a5,a3,0x10
ffffa420:	40f70533          	sub	a0,a4,a5
ffffa424:	0ff57593          	andi	a1,a0,255
ffffa428:	02059063          	bne	a1,zero,ffffa448 <strcmp+0xfc>
ffffa42c:	00008067          	jalr	zero,0(ra)
ffffa430:	01075713          	srli	a4,a4,0x10
ffffa434:	0107d793          	srli	a5,a5,0x10
ffffa438:	40f70533          	sub	a0,a4,a5
ffffa43c:	0ff57593          	andi	a1,a0,255
ffffa440:	00059463          	bne	a1,zero,ffffa448 <strcmp+0xfc>
ffffa444:	00008067          	jalr	zero,0(ra)
ffffa448:	0ff77713          	andi	a4,a4,255
ffffa44c:	0ff7f793          	andi	a5,a5,255
ffffa450:	40f70533          	sub	a0,a4,a5
ffffa454:	00008067          	jalr	zero,0(ra)
ffffa458:	00054603          	lbu	a2,0(a0)
ffffa45c:	0005c683          	lbu	a3,0(a1)
ffffa460:	00150513          	addi	a0,a0,1
ffffa464:	00158593          	addi	a1,a1,1
ffffa468:	00d61463          	bne	a2,a3,ffffa470 <strcmp+0x124>
ffffa46c:	fe0616e3          	bne	a2,zero,ffffa458 <strcmp+0x10c>
ffffa470:	40d60533          	sub	a0,a2,a3
ffffa474:	00008067          	jalr	zero,0(ra)
ffffa478:	00450513          	addi	a0,a0,4
ffffa47c:	00458593          	addi	a1,a1,4
ffffa480:	fcd61ce3          	bne	a2,a3,ffffa458 <strcmp+0x10c>
ffffa484:	00000513          	addi	a0,zero,0
ffffa488:	00008067          	jalr	zero,0(ra)
ffffa48c:	00850513          	addi	a0,a0,8
ffffa490:	00858593          	addi	a1,a1,8
ffffa494:	fcd612e3          	bne	a2,a3,ffffa458 <strcmp+0x10c>
ffffa498:	00000513          	addi	a0,zero,0
ffffa49c:	00008067          	jalr	zero,0(ra)
ffffa4a0:	00c50513          	addi	a0,a0,12
ffffa4a4:	00c58593          	addi	a1,a1,12
ffffa4a8:	fad618e3          	bne	a2,a3,ffffa458 <strcmp+0x10c>
ffffa4ac:	00000513          	addi	a0,zero,0
ffffa4b0:	00008067          	jalr	zero,0(ra)
ffffa4b4:	01050513          	addi	a0,a0,16
ffffa4b8:	01058593          	addi	a1,a1,16
ffffa4bc:	f8d61ee3          	bne	a2,a3,ffffa458 <strcmp+0x10c>
ffffa4c0:	00000513          	addi	a0,zero,0
ffffa4c4:	00008067          	jalr	zero,0(ra)

ffffa4c8 <__text_end>:
ffffa4c8:	4844                	.insn	2, 0x4844
ffffa4ca:	5952                	.insn	2, 0x5952
ffffa4cc:	4e4f5453          	.insn	4, 0x4e4f5453
ffffa4d0:	2045                	.insn	2, 0x2045
ffffa4d2:	5250                	.insn	2, 0x5250
ffffa4d4:	4152474f          	.insn	4, 0x4152474f
ffffa4d8:	2c4d                	.insn	2, 0x2c4d
ffffa4da:	5320                	.insn	2, 0x5320
ffffa4dc:	20454d4f          	.insn	4, 0x20454d4f
ffffa4e0:	49525453          	.insn	4, 0x49525453
ffffa4e4:	474e                	.insn	2, 0x474e
ffffa4e6:	0000                	.insn	2, 0x
ffffa4e8:	4844                	.insn	2, 0x4844
ffffa4ea:	5952                	.insn	2, 0x5952
ffffa4ec:	4e4f5453          	.insn	4, 0x4e4f5453
ffffa4f0:	2045                	.insn	2, 0x2045
ffffa4f2:	5250                	.insn	2, 0x5250
ffffa4f4:	4152474f          	.insn	4, 0x4152474f
ffffa4f8:	2c4d                	.insn	2, 0x2c4d
ffffa4fa:	3120                	.insn	2, 0x3120
ffffa4fc:	20545327          	.insn	4, 0x20545327
ffffa500:	49525453          	.insn	4, 0x49525453
ffffa504:	474e                	.insn	2, 0x474e
ffffa506:	0000                	.insn	2, 0x
ffffa508:	0d0a                	.insn	2, 0x0d0a
ffffa50a:	0000                	.insn	2, 0x
ffffa50c:	6844                	.insn	2, 0x6844
ffffa50e:	7972                	.insn	2, 0x7972
ffffa510:	6e6f7473          	.insn	4, 0x6e6f7473
ffffa514:	2065                	.insn	2, 0x2065
ffffa516:	6542                	.insn	2, 0x6542
ffffa518:	636e                	.insn	2, 0x636e
ffffa51a:	6d68                	.insn	2, 0x6d68
ffffa51c:	7261                	.insn	2, 0x7261
ffffa51e:	56202c6b          	.insn	4, 0x56202c6b
ffffa522:	7265                	.insn	2, 0x7265
ffffa524:	6e6f6973          	.insn	4, 0x6e6f6973
ffffa528:	3220                	.insn	2, 0x3220
ffffa52a:	312e                	.insn	2, 0x312e
ffffa52c:	2820                	.insn	2, 0x2820
ffffa52e:	614c                	.insn	2, 0x614c
ffffa530:	676e                	.insn	2, 0x676e
ffffa532:	6175                	.insn	2, 0x6175
ffffa534:	203a6567          	.insn	4, 0x203a6567
ffffa538:	0d0a2943          	.insn	4, 0x0d0a2943
ffffa53c:	0000                	.insn	2, 0x
ffffa53e:	0000                	.insn	2, 0x
ffffa540:	7250                	.insn	2, 0x7250
ffffa542:	6172676f          	jal	a4,21358 <uart0+0x22b50>
ffffa546:	206d                	.insn	2, 0x206d
ffffa548:	706d6f63          	bltu	s10,t1,ffffac66 <__clz_tab+0x1f2>
ffffa54c:	6c69                	.insn	2, 0x6c69
ffffa54e:	6465                	.insn	2, 0x6465
ffffa550:	7720                	.insn	2, 0x7720
ffffa552:	7469                	.insn	2, 0x7469
ffffa554:	2068                	.insn	2, 0x2068
ffffa556:	67657227          	.insn	4, 0x67657227
ffffa55a:	7369                	.insn	2, 0x7369
ffffa55c:	6574                	.insn	2, 0x6574
ffffa55e:	2772                	.insn	2, 0x2772
ffffa560:	6120                	.insn	2, 0x6120
ffffa562:	7474                	.insn	2, 0x7474
ffffa564:	6972                	.insn	2, 0x6972
ffffa566:	7562                	.insn	2, 0x7562
ffffa568:	6574                	.insn	2, 0x6574
ffffa56a:	0d0a                	.insn	2, 0x0d0a
ffffa56c:	0000                	.insn	2, 0x
ffffa56e:	0000                	.insn	2, 0x
ffffa570:	7250                	.insn	2, 0x7250
ffffa572:	6172676f          	jal	a4,21388 <uart0+0x22b80>
ffffa576:	206d                	.insn	2, 0x206d
ffffa578:	706d6f63          	bltu	s10,t1,ffffac96 <__clz_tab+0x222>
ffffa57c:	6c69                	.insn	2, 0x6c69
ffffa57e:	6465                	.insn	2, 0x6465
ffffa580:	7720                	.insn	2, 0x7720
ffffa582:	7469                	.insn	2, 0x7469
ffffa584:	6f68                	.insn	2, 0x6f68
ffffa586:	7475                	.insn	2, 0x7475
ffffa588:	2720                	.insn	2, 0x2720
ffffa58a:	6572                	.insn	2, 0x6572
ffffa58c:	74736967          	.insn	4, 0x74736967
ffffa590:	7265                	.insn	2, 0x7265
ffffa592:	74612027          	.insn	4, 0x74612027
ffffa596:	7274                	.insn	2, 0x7274
ffffa598:	6269                	.insn	2, 0x6269
ffffa59a:	7475                	.insn	2, 0x7475
ffffa59c:	0a65                	.insn	2, 0x0a65
ffffa59e:	000d                	.insn	2, 0x000d
ffffa5a0:	7845                	.insn	2, 0x7845
ffffa5a2:	6365                	.insn	2, 0x6365
ffffa5a4:	7475                	.insn	2, 0x7475
ffffa5a6:	6f69                	.insn	2, 0x6f69
ffffa5a8:	206e                	.insn	2, 0x206e
ffffa5aa:	72617473          	.insn	4, 0x72617473
ffffa5ae:	7374                	.insn	2, 0x7374
ffffa5b0:	202c                	.insn	2, 0x202c
ffffa5b2:	0000                	.insn	2, 0x
ffffa5b4:	7220                	.insn	2, 0x7220
ffffa5b6:	6e75                	.insn	2, 0x6e75
ffffa5b8:	68742073          	.insn	4, 0x68742073
ffffa5bc:	6f72                	.insn	2, 0x6f72
ffffa5be:	6775                	.insn	2, 0x6775
ffffa5c0:	2068                	.insn	2, 0x2068
ffffa5c2:	6844                	.insn	2, 0x6844
ffffa5c4:	7972                	.insn	2, 0x7972
ffffa5c6:	6e6f7473          	.insn	4, 0x6e6f7473
ffffa5ca:	0a65                	.insn	2, 0x0a65
ffffa5cc:	000d                	.insn	2, 0x000d
ffffa5ce:	0000                	.insn	2, 0x
ffffa5d0:	4844                	.insn	2, 0x4844
ffffa5d2:	5952                	.insn	2, 0x5952
ffffa5d4:	4e4f5453          	.insn	4, 0x4e4f5453
ffffa5d8:	2045                	.insn	2, 0x2045
ffffa5da:	5250                	.insn	2, 0x5250
ffffa5dc:	4152474f          	.insn	4, 0x4152474f
ffffa5e0:	2c4d                	.insn	2, 0x2c4d
ffffa5e2:	3220                	.insn	2, 0x3220
ffffa5e4:	20444e27          	.insn	4, 0x20444e27
ffffa5e8:	49525453          	.insn	4, 0x49525453
ffffa5ec:	474e                	.insn	2, 0x474e
ffffa5ee:	0000                	.insn	2, 0x
ffffa5f0:	4844                	.insn	2, 0x4844
ffffa5f2:	5952                	.insn	2, 0x5952
ffffa5f4:	4e4f5453          	.insn	4, 0x4e4f5453
ffffa5f8:	2045                	.insn	2, 0x2045
ffffa5fa:	5250                	.insn	2, 0x5250
ffffa5fc:	4152474f          	.insn	4, 0x4152474f
ffffa600:	2c4d                	.insn	2, 0x2c4d
ffffa602:	3320                	.insn	2, 0x3320
ffffa604:	20445227          	.insn	4, 0x20445227
ffffa608:	49525453          	.insn	4, 0x49525453
ffffa60c:	474e                	.insn	2, 0x474e
ffffa60e:	0000                	.insn	2, 0x
ffffa610:	7845                	.insn	2, 0x7845
ffffa612:	6365                	.insn	2, 0x6365
ffffa614:	7475                	.insn	2, 0x7475
ffffa616:	6f69                	.insn	2, 0x6f69
ffffa618:	206e                	.insn	2, 0x206e
ffffa61a:	6e65                	.insn	2, 0x6e65
ffffa61c:	7364                	.insn	2, 0x7364
ffffa61e:	0d0a                	.insn	2, 0x0d0a
ffffa620:	0000                	.insn	2, 0x
ffffa622:	0000                	.insn	2, 0x
ffffa624:	6946                	.insn	2, 0x6946
ffffa626:	616e                	.insn	2, 0x616e
ffffa628:	206c                	.insn	2, 0x206c
ffffa62a:	6176                	.insn	2, 0x6176
ffffa62c:	756c                	.insn	2, 0x756c
ffffa62e:	7365                	.insn	2, 0x7365
ffffa630:	6f20                	.insn	2, 0x6f20
ffffa632:	2066                	.insn	2, 0x2066
ffffa634:	6874                	.insn	2, 0x6874
ffffa636:	2065                	.insn	2, 0x2065
ffffa638:	6176                	.insn	2, 0x6176
ffffa63a:	6972                	.insn	2, 0x6972
ffffa63c:	6261                	.insn	2, 0x6261
ffffa63e:	656c                	.insn	2, 0x656c
ffffa640:	73752073          	.insn	4, 0x73752073
ffffa644:	6465                	.insn	2, 0x6465
ffffa646:	6920                	.insn	2, 0x6920
ffffa648:	206e                	.insn	2, 0x206e
ffffa64a:	6874                	.insn	2, 0x6874
ffffa64c:	2065                	.insn	2, 0x2065
ffffa64e:	6562                	.insn	2, 0x6562
ffffa650:	636e                	.insn	2, 0x636e
ffffa652:	6d68                	.insn	2, 0x6d68
ffffa654:	7261                	.insn	2, 0x7261
ffffa656:	0d0a3a6b          	.insn	4, 0x0d0a3a6b
ffffa65a:	0000                	.insn	2, 0x
ffffa65c:	6e49                	.insn	2, 0x6e49
ffffa65e:	5f74                	.insn	2, 0x5f74
ffffa660:	626f6c47          	.insn	4, 0x626f6c47
ffffa664:	203a                	.insn	2, 0x203a
ffffa666:	2020                	.insn	2, 0x2020
ffffa668:	2020                	.insn	2, 0x2020
ffffa66a:	2020                	.insn	2, 0x2020
ffffa66c:	2020                	.insn	2, 0x2020
ffffa66e:	2020                	.insn	2, 0x2020
ffffa670:	0020                	.insn	2, 0x0020
ffffa672:	0000                	.insn	2, 0x
ffffa674:	2020                	.insn	2, 0x2020
ffffa676:	2020                	.insn	2, 0x2020
ffffa678:	2020                	.insn	2, 0x2020
ffffa67a:	2020                	.insn	2, 0x2020
ffffa67c:	756f6873          	.insn	4, 0x756f6873
ffffa680:	646c                	.insn	2, 0x646c
ffffa682:	6220                	.insn	2, 0x6220
ffffa684:	3a65                	.insn	2, 0x3a65
ffffa686:	2020                	.insn	2, 0x2020
ffffa688:	0020                	.insn	2, 0x0020
ffffa68a:	0000                	.insn	2, 0x
ffffa68c:	6f42                	.insn	2, 0x6f42
ffffa68e:	475f6c6f          	jal	s8,f1302 <uart0+0xf2afa>
ffffa692:	6f6c                	.insn	2, 0x6f6c
ffffa694:	3a62                	.insn	2, 0x3a62
ffffa696:	2020                	.insn	2, 0x2020
ffffa698:	2020                	.insn	2, 0x2020
ffffa69a:	2020                	.insn	2, 0x2020
ffffa69c:	2020                	.insn	2, 0x2020
ffffa69e:	2020                	.insn	2, 0x2020
ffffa6a0:	0020                	.insn	2, 0x0020
ffffa6a2:	0000                	.insn	2, 0x
ffffa6a4:	315f6843          	.insn	4, 0x315f6843
ffffa6a8:	475f 6f6c 3a62      	.insn	6, 0x3a626f6c475f
ffffa6ae:	2020                	.insn	2, 0x2020
ffffa6b0:	2020                	.insn	2, 0x2020
ffffa6b2:	2020                	.insn	2, 0x2020
ffffa6b4:	2020                	.insn	2, 0x2020
ffffa6b6:	2020                	.insn	2, 0x2020
ffffa6b8:	0020                	.insn	2, 0x0020
ffffa6ba:	0000                	.insn	2, 0x
ffffa6bc:	325f6843          	.insn	4, 0x325f6843
ffffa6c0:	475f 6f6c 3a62      	.insn	6, 0x3a626f6c475f
ffffa6c6:	2020                	.insn	2, 0x2020
ffffa6c8:	2020                	.insn	2, 0x2020
ffffa6ca:	2020                	.insn	2, 0x2020
ffffa6cc:	2020                	.insn	2, 0x2020
ffffa6ce:	2020                	.insn	2, 0x2020
ffffa6d0:	0020                	.insn	2, 0x0020
ffffa6d2:	0000                	.insn	2, 0x
ffffa6d4:	7241                	.insn	2, 0x7241
ffffa6d6:	5f72                	.insn	2, 0x5f72
ffffa6d8:	5f31                	.insn	2, 0x5f31
ffffa6da:	626f6c47          	.insn	4, 0x626f6c47
ffffa6de:	3a5d385b          	.insn	4, 0x3a5d385b
ffffa6e2:	2020                	.insn	2, 0x2020
ffffa6e4:	2020                	.insn	2, 0x2020
ffffa6e6:	2020                	.insn	2, 0x2020
ffffa6e8:	0020                	.insn	2, 0x0020
ffffa6ea:	0000                	.insn	2, 0x
ffffa6ec:	7241                	.insn	2, 0x7241
ffffa6ee:	5f72                	.insn	2, 0x5f72
ffffa6f0:	5f32                	.insn	2, 0x5f32
ffffa6f2:	626f6c47          	.insn	4, 0x626f6c47
ffffa6f6:	5b5d385b          	.insn	4, 0x5b5d385b
ffffa6fa:	203a5d37          	lui	s10,0x203a5
ffffa6fe:	2020                	.insn	2, 0x2020
ffffa700:	0020                	.insn	2, 0x0020
ffffa702:	0000                	.insn	2, 0x
ffffa704:	2020                	.insn	2, 0x2020
ffffa706:	2020                	.insn	2, 0x2020
ffffa708:	2020                	.insn	2, 0x2020
ffffa70a:	2020                	.insn	2, 0x2020
ffffa70c:	756f6873          	.insn	4, 0x756f6873
ffffa710:	646c                	.insn	2, 0x646c
ffffa712:	6220                	.insn	2, 0x6220
ffffa714:	3a65                	.insn	2, 0x3a65
ffffa716:	2020                	.insn	2, 0x2020
ffffa718:	4e20                	.insn	2, 0x4e20
ffffa71a:	6d75                	.insn	2, 0x6d75
ffffa71c:	6562                	.insn	2, 0x6562
ffffa71e:	5f72                	.insn	2, 0x5f72
ffffa720:	525f664f          	.insn	4, 0x525f664f
ffffa724:	6e75                	.insn	2, 0x6e75
ffffa726:	202b2073          	.insn	4, 0x202b2073
ffffa72a:	3031                	.insn	2, 0x3031
ffffa72c:	0d0a                	.insn	2, 0x0d0a
ffffa72e:	0000                	.insn	2, 0x
ffffa730:	7450                	.insn	2, 0x7450
ffffa732:	5f72                	.insn	2, 0x5f72
ffffa734:	626f6c47          	.insn	4, 0x626f6c47
ffffa738:	3e2d                	.insn	2, 0x3e2d
ffffa73a:	0d0a                	.insn	2, 0x0d0a
ffffa73c:	0000                	.insn	2, 0x
ffffa73e:	0000                	.insn	2, 0x
ffffa740:	2020                	.insn	2, 0x2020
ffffa742:	7450                	.insn	2, 0x7450
ffffa744:	5f72                	.insn	2, 0x5f72
ffffa746:	706d6f43          	.insn	4, 0x706d6f43
ffffa74a:	203a                	.insn	2, 0x203a
ffffa74c:	2020                	.insn	2, 0x2020
ffffa74e:	2020                	.insn	2, 0x2020
ffffa750:	2020                	.insn	2, 0x2020
ffffa752:	2020                	.insn	2, 0x2020
ffffa754:	0020                	.insn	2, 0x0020
ffffa756:	0000                	.insn	2, 0x
ffffa758:	2020                	.insn	2, 0x2020
ffffa75a:	2020                	.insn	2, 0x2020
ffffa75c:	2020                	.insn	2, 0x2020
ffffa75e:	2020                	.insn	2, 0x2020
ffffa760:	756f6873          	.insn	4, 0x756f6873
ffffa764:	646c                	.insn	2, 0x646c
ffffa766:	6220                	.insn	2, 0x6220
ffffa768:	3a65                	.insn	2, 0x3a65
ffffa76a:	2020                	.insn	2, 0x2020
ffffa76c:	2820                	.insn	2, 0x2820
ffffa76e:	6d69                	.insn	2, 0x6d69
ffffa770:	6c70                	.insn	2, 0x6c70
ffffa772:	6d65                	.insn	2, 0x6d65
ffffa774:	6e65                	.insn	2, 0x6e65
ffffa776:	6174                	.insn	2, 0x6174
ffffa778:	6974                	.insn	2, 0x6974
ffffa77a:	642d6e6f          	jal	t3,d0dbc <uart0+0xd25b4>
ffffa77e:	7065                	.insn	2, 0x7065
ffffa780:	6e65                	.insn	2, 0x6e65
ffffa782:	6564                	.insn	2, 0x6564
ffffa784:	746e                	.insn	2, 0x746e
ffffa786:	0a29                	.insn	2, 0x0a29
ffffa788:	000d                	.insn	2, 0x000d
ffffa78a:	0000                	.insn	2, 0x
ffffa78c:	2020                	.insn	2, 0x2020
ffffa78e:	6944                	.insn	2, 0x6944
ffffa790:	3a726373          	.insn	4, 0x3a726373
ffffa794:	2020                	.insn	2, 0x2020
ffffa796:	2020                	.insn	2, 0x2020
ffffa798:	2020                	.insn	2, 0x2020
ffffa79a:	2020                	.insn	2, 0x2020
ffffa79c:	2020                	.insn	2, 0x2020
ffffa79e:	2020                	.insn	2, 0x2020
ffffa7a0:	0020                	.insn	2, 0x0020
ffffa7a2:	0000                	.insn	2, 0x
ffffa7a4:	2020                	.insn	2, 0x2020
ffffa7a6:	6e45                	.insn	2, 0x6e45
ffffa7a8:	6d75                	.insn	2, 0x6d75
ffffa7aa:	435f 6d6f 3a70      	.insn	6, 0x3a706d6f435f
ffffa7b0:	2020                	.insn	2, 0x2020
ffffa7b2:	2020                	.insn	2, 0x2020
ffffa7b4:	2020                	.insn	2, 0x2020
ffffa7b6:	2020                	.insn	2, 0x2020
ffffa7b8:	0020                	.insn	2, 0x0020
ffffa7ba:	0000                	.insn	2, 0x
ffffa7bc:	2020                	.insn	2, 0x2020
ffffa7be:	6e49                	.insn	2, 0x6e49
ffffa7c0:	5f74                	.insn	2, 0x5f74
ffffa7c2:	706d6f43          	.insn	4, 0x706d6f43
ffffa7c6:	203a                	.insn	2, 0x203a
ffffa7c8:	2020                	.insn	2, 0x2020
ffffa7ca:	2020                	.insn	2, 0x2020
ffffa7cc:	2020                	.insn	2, 0x2020
ffffa7ce:	2020                	.insn	2, 0x2020
ffffa7d0:	0020                	.insn	2, 0x0020
ffffa7d2:	0000                	.insn	2, 0x
ffffa7d4:	2020                	.insn	2, 0x2020
ffffa7d6:	5f727453          	.insn	4, 0x5f727453
ffffa7da:	706d6f43          	.insn	4, 0x706d6f43
ffffa7de:	203a                	.insn	2, 0x203a
ffffa7e0:	2020                	.insn	2, 0x2020
ffffa7e2:	2020                	.insn	2, 0x2020
ffffa7e4:	2020                	.insn	2, 0x2020
ffffa7e6:	2020                	.insn	2, 0x2020
ffffa7e8:	0020                	.insn	2, 0x0020
ffffa7ea:	0000                	.insn	2, 0x
ffffa7ec:	2020                	.insn	2, 0x2020
ffffa7ee:	2020                	.insn	2, 0x2020
ffffa7f0:	2020                	.insn	2, 0x2020
ffffa7f2:	2020                	.insn	2, 0x2020
ffffa7f4:	756f6873          	.insn	4, 0x756f6873
ffffa7f8:	646c                	.insn	2, 0x646c
ffffa7fa:	6220                	.insn	2, 0x6220
ffffa7fc:	3a65                	.insn	2, 0x3a65
ffffa7fe:	2020                	.insn	2, 0x2020
ffffa800:	4420                	.insn	2, 0x4420
ffffa802:	5248                	.insn	2, 0x5248
ffffa804:	5359                	.insn	2, 0x5359
ffffa806:	4f54                	.insn	2, 0x4f54
ffffa808:	454e                	.insn	2, 0x454e
ffffa80a:	5020                	.insn	2, 0x5020
ffffa80c:	4f52                	.insn	2, 0x4f52
ffffa80e:	4d415247          	.insn	4, 0x4d415247
ffffa812:	202c                	.insn	2, 0x202c
ffffa814:	454d4f53          	.insn	4, 0x454d4f53
ffffa818:	5320                	.insn	2, 0x5320
ffffa81a:	5254                	.insn	2, 0x5254
ffffa81c:	4e49                	.insn	2, 0x4e49
ffffa81e:	000d0a47          	.insn	4, 0x000d0a47
ffffa822:	0000                	.insn	2, 0x
ffffa824:	654e                	.insn	2, 0x654e
ffffa826:	7478                	.insn	2, 0x7478
ffffa828:	505f 7274 475f      	.insn	6, 0x475f7274505f
ffffa82e:	6f6c                	.insn	2, 0x6f6c
ffffa830:	2d62                	.insn	2, 0x2d62
ffffa832:	0a3e                	.insn	2, 0x0a3e
ffffa834:	000d                	.insn	2, 0x000d
ffffa836:	0000                	.insn	2, 0x
ffffa838:	2020                	.insn	2, 0x2020
ffffa83a:	2020                	.insn	2, 0x2020
ffffa83c:	2020                	.insn	2, 0x2020
ffffa83e:	2020                	.insn	2, 0x2020
ffffa840:	756f6873          	.insn	4, 0x756f6873
ffffa844:	646c                	.insn	2, 0x646c
ffffa846:	6220                	.insn	2, 0x6220
ffffa848:	3a65                	.insn	2, 0x3a65
ffffa84a:	2020                	.insn	2, 0x2020
ffffa84c:	2820                	.insn	2, 0x2820
ffffa84e:	6d69                	.insn	2, 0x6d69
ffffa850:	6c70                	.insn	2, 0x6c70
ffffa852:	6d65                	.insn	2, 0x6d65
ffffa854:	6e65                	.insn	2, 0x6e65
ffffa856:	6174                	.insn	2, 0x6174
ffffa858:	6974                	.insn	2, 0x6974
ffffa85a:	642d6e6f          	jal	t3,d0e9c <uart0+0xd2694>
ffffa85e:	7065                	.insn	2, 0x7065
ffffa860:	6e65                	.insn	2, 0x6e65
ffffa862:	6564                	.insn	2, 0x6564
ffffa864:	746e                	.insn	2, 0x746e
ffffa866:	2c29                	.insn	2, 0x2c29
ffffa868:	7320                	.insn	2, 0x7320
ffffa86a:	6d61                	.insn	2, 0x6d61
ffffa86c:	2065                	.insn	2, 0x2065
ffffa86e:	7361                	.insn	2, 0x7361
ffffa870:	6120                	.insn	2, 0x6120
ffffa872:	6f62                	.insn	2, 0x6f62
ffffa874:	6576                	.insn	2, 0x6576
ffffa876:	0d0a                	.insn	2, 0x0d0a
ffffa878:	0000                	.insn	2, 0x
ffffa87a:	0000                	.insn	2, 0x
ffffa87c:	6e49                	.insn	2, 0x6e49
ffffa87e:	5f74                	.insn	2, 0x5f74
ffffa880:	5f31                	.insn	2, 0x5f31
ffffa882:	6f4c                	.insn	2, 0x6f4c
ffffa884:	20203a63          	.insn	4, 0x20203a63
ffffa888:	2020                	.insn	2, 0x2020
ffffa88a:	2020                	.insn	2, 0x2020
ffffa88c:	2020                	.insn	2, 0x2020
ffffa88e:	2020                	.insn	2, 0x2020
ffffa890:	0020                	.insn	2, 0x0020
ffffa892:	0000                	.insn	2, 0x
ffffa894:	6e49                	.insn	2, 0x6e49
ffffa896:	5f74                	.insn	2, 0x5f74
ffffa898:	5f32                	.insn	2, 0x5f32
ffffa89a:	6f4c                	.insn	2, 0x6f4c
ffffa89c:	20203a63          	.insn	4, 0x20203a63
ffffa8a0:	2020                	.insn	2, 0x2020
ffffa8a2:	2020                	.insn	2, 0x2020
ffffa8a4:	2020                	.insn	2, 0x2020
ffffa8a6:	2020                	.insn	2, 0x2020
ffffa8a8:	0020                	.insn	2, 0x0020
ffffa8aa:	0000                	.insn	2, 0x
ffffa8ac:	6e49                	.insn	2, 0x6e49
ffffa8ae:	5f74                	.insn	2, 0x5f74
ffffa8b0:	6f4c5f33          	.insn	4, 0x6f4c5f33
ffffa8b4:	20203a63          	.insn	4, 0x20203a63
ffffa8b8:	2020                	.insn	2, 0x2020
ffffa8ba:	2020                	.insn	2, 0x2020
ffffa8bc:	2020                	.insn	2, 0x2020
ffffa8be:	2020                	.insn	2, 0x2020
ffffa8c0:	0020                	.insn	2, 0x0020
ffffa8c2:	0000                	.insn	2, 0x
ffffa8c4:	6e45                	.insn	2, 0x6e45
ffffa8c6:	6d75                	.insn	2, 0x6d75
ffffa8c8:	4c5f 636f 203a      	.insn	6, 0x203a636f4c5f
ffffa8ce:	2020                	.insn	2, 0x2020
ffffa8d0:	2020                	.insn	2, 0x2020
ffffa8d2:	2020                	.insn	2, 0x2020
ffffa8d4:	2020                	.insn	2, 0x2020
ffffa8d6:	2020                	.insn	2, 0x2020
ffffa8d8:	0020                	.insn	2, 0x0020
ffffa8da:	0000                	.insn	2, 0x
ffffa8dc:	5f727453          	.insn	4, 0x5f727453
ffffa8e0:	5f31                	.insn	2, 0x5f31
ffffa8e2:	6f4c                	.insn	2, 0x6f4c
ffffa8e4:	20203a63          	.insn	4, 0x20203a63
ffffa8e8:	2020                	.insn	2, 0x2020
ffffa8ea:	2020                	.insn	2, 0x2020
ffffa8ec:	2020                	.insn	2, 0x2020
ffffa8ee:	2020                	.insn	2, 0x2020
ffffa8f0:	0020                	.insn	2, 0x0020
ffffa8f2:	0000                	.insn	2, 0x
ffffa8f4:	2020                	.insn	2, 0x2020
ffffa8f6:	2020                	.insn	2, 0x2020
ffffa8f8:	2020                	.insn	2, 0x2020
ffffa8fa:	2020                	.insn	2, 0x2020
ffffa8fc:	756f6873          	.insn	4, 0x756f6873
ffffa900:	646c                	.insn	2, 0x646c
ffffa902:	6220                	.insn	2, 0x6220
ffffa904:	3a65                	.insn	2, 0x3a65
ffffa906:	2020                	.insn	2, 0x2020
ffffa908:	4420                	.insn	2, 0x4420
ffffa90a:	5248                	.insn	2, 0x5248
ffffa90c:	5359                	.insn	2, 0x5359
ffffa90e:	4f54                	.insn	2, 0x4f54
ffffa910:	454e                	.insn	2, 0x454e
ffffa912:	5020                	.insn	2, 0x5020
ffffa914:	4f52                	.insn	2, 0x4f52
ffffa916:	4d415247          	.insn	4, 0x4d415247
ffffa91a:	202c                	.insn	2, 0x202c
ffffa91c:	2731                	.insn	2, 0x2731
ffffa91e:	53205453          	.insn	4, 0x53205453
ffffa922:	5254                	.insn	2, 0x5254
ffffa924:	4e49                	.insn	2, 0x4e49
ffffa926:	000d0a47          	.insn	4, 0x000d0a47
ffffa92a:	0000                	.insn	2, 0x
ffffa92c:	5f727453          	.insn	4, 0x5f727453
ffffa930:	5f32                	.insn	2, 0x5f32
ffffa932:	6f4c                	.insn	2, 0x6f4c
ffffa934:	20203a63          	.insn	4, 0x20203a63
ffffa938:	2020                	.insn	2, 0x2020
ffffa93a:	2020                	.insn	2, 0x2020
ffffa93c:	2020                	.insn	2, 0x2020
ffffa93e:	2020                	.insn	2, 0x2020
ffffa940:	0020                	.insn	2, 0x0020
ffffa942:	0000                	.insn	2, 0x
ffffa944:	2020                	.insn	2, 0x2020
ffffa946:	2020                	.insn	2, 0x2020
ffffa948:	2020                	.insn	2, 0x2020
ffffa94a:	2020                	.insn	2, 0x2020
ffffa94c:	756f6873          	.insn	4, 0x756f6873
ffffa950:	646c                	.insn	2, 0x646c
ffffa952:	6220                	.insn	2, 0x6220
ffffa954:	3a65                	.insn	2, 0x3a65
ffffa956:	2020                	.insn	2, 0x2020
ffffa958:	4420                	.insn	2, 0x4420
ffffa95a:	5248                	.insn	2, 0x5248
ffffa95c:	5359                	.insn	2, 0x5359
ffffa95e:	4f54                	.insn	2, 0x4f54
ffffa960:	454e                	.insn	2, 0x454e
ffffa962:	5020                	.insn	2, 0x5020
ffffa964:	4f52                	.insn	2, 0x4f52
ffffa966:	4d415247          	.insn	4, 0x4d415247
ffffa96a:	202c                	.insn	2, 0x202c
ffffa96c:	2732                	.insn	2, 0x2732
ffffa96e:	444e                	.insn	2, 0x444e
ffffa970:	5320                	.insn	2, 0x5320
ffffa972:	5254                	.insn	2, 0x5254
ffffa974:	4e49                	.insn	2, 0x4e49
ffffa976:	000d0a47          	.insn	4, 0x000d0a47
ffffa97a:	0000                	.insn	2, 0x
ffffa97c:	7355                	.insn	2, 0x7355
ffffa97e:	7265                	.insn	2, 0x7265
ffffa980:	6974                	.insn	2, 0x6974
ffffa982:	656d                	.insn	2, 0x656d
ffffa984:	203a                	.insn	2, 0x203a
ffffa986:	0000                	.insn	2, 0x
ffffa988:	636f6c43          	.insn	4, 0x636f6c43
ffffa98c:	7246206b          	.insn	4, 0x7246206b
ffffa990:	7165                	.insn	2, 0x7165
ffffa992:	6575                	.insn	2, 0x6575
ffffa994:	636e                	.insn	2, 0x636e
ffffa996:	3a79                	.insn	2, 0x3a79
ffffa998:	0020                	.insn	2, 0x0020
ffffa99a:	0000                	.insn	2, 0x
ffffa99c:	4d20                	.insn	2, 0x4d20
ffffa99e:	7a48                	.insn	2, 0x7a48
ffffa9a0:	002e                	.insn	2, 0x002e
ffffa9a2:	0000                	.insn	2, 0x
ffffa9a4:	654d                	.insn	2, 0x654d
ffffa9a6:	7361                	.insn	2, 0x7361
ffffa9a8:	7275                	.insn	2, 0x7275
ffffa9aa:	6465                	.insn	2, 0x6465
ffffa9ac:	7420                	.insn	2, 0x7420
ffffa9ae:	6d69                	.insn	2, 0x6d69
ffffa9b0:	2065                	.insn	2, 0x2065
ffffa9b2:	6f74                	.insn	2, 0x6f74
ffffa9b4:	6d73206f          	jal	zero,2d88a <uart0+0x2f082>
ffffa9b8:	6c61                	.insn	2, 0x6c61
ffffa9ba:	206c                	.insn	2, 0x206c
ffffa9bc:	6f74                	.insn	2, 0x6f74
ffffa9be:	6f20                	.insn	2, 0x6f20
ffffa9c0:	7462                	.insn	2, 0x7462
ffffa9c2:	6961                	.insn	2, 0x6961
ffffa9c4:	206e                	.insn	2, 0x206e
ffffa9c6:	656d                	.insn	2, 0x656d
ffffa9c8:	6e61                	.insn	2, 0x6e61
ffffa9ca:	6e69                	.insn	2, 0x6e69
ffffa9cc:	6c756667          	.insn	4, 0x6c756667
ffffa9d0:	7220                	.insn	2, 0x7220
ffffa9d2:	7365                	.insn	2, 0x7365
ffffa9d4:	6c75                	.insn	2, 0x6c75
ffffa9d6:	7374                	.insn	2, 0x7374
ffffa9d8:	0d0a                	.insn	2, 0x0d0a
ffffa9da:	0000                	.insn	2, 0x
ffffa9dc:	6c50                	.insn	2, 0x6c50
ffffa9de:	6165                	.insn	2, 0x6165
ffffa9e0:	69206573          	.insn	4, 0x69206573
ffffa9e4:	636e                	.insn	2, 0x636e
ffffa9e6:	6572                	.insn	2, 0x6572
ffffa9e8:	7361                	.insn	2, 0x7361
ffffa9ea:	2065                	.insn	2, 0x2065
ffffa9ec:	756e                	.insn	2, 0x756e
ffffa9ee:	626d                	.insn	2, 0x626d
ffffa9f0:	7265                	.insn	2, 0x7265
ffffa9f2:	6f20                	.insn	2, 0x6f20
ffffa9f4:	2066                	.insn	2, 0x2066
ffffa9f6:	7572                	.insn	2, 0x7572
ffffa9f8:	736e                	.insn	2, 0x736e
ffffa9fa:	0d0a                	.insn	2, 0x0d0a
ffffa9fc:	0000                	.insn	2, 0x
ffffa9fe:	0000                	.insn	2, 0x
ffffaa00:	694d                	.insn	2, 0x694d
ffffaa02:	736f7263          	bgeu	t5,s6,ffffb126 <__clz_tab+0x6b2>
ffffaa06:	6365                	.insn	2, 0x6365
ffffaa08:	73646e6f          	jal	t3,4113e <uart0+0x42936>
ffffaa0c:	6620                	.insn	2, 0x6620
ffffaa0e:	6f20726f          	jal	tp,2100 <uart0+0x38f8>
ffffaa12:	656e                	.insn	2, 0x656e
ffffaa14:	7220                	.insn	2, 0x7220
ffffaa16:	6e75                	.insn	2, 0x6e75
ffffaa18:	7420                	.insn	2, 0x7420
ffffaa1a:	7268                	.insn	2, 0x7268
ffffaa1c:	6867756f          	jal	a0,720a2 <uart0+0x7389a>
ffffaa20:	4420                	.insn	2, 0x4420
ffffaa22:	7268                	.insn	2, 0x7268
ffffaa24:	7379                	.insn	2, 0x7379
ffffaa26:	6f74                	.insn	2, 0x6f74
ffffaa28:	656e                	.insn	2, 0x656e
ffffaa2a:	203a                	.insn	2, 0x203a
ffffaa2c:	0000                	.insn	2, 0x
ffffaa2e:	0000                	.insn	2, 0x
ffffaa30:	6844                	.insn	2, 0x6844
ffffaa32:	7972                	.insn	2, 0x7972
ffffaa34:	6e6f7473          	.insn	4, 0x6e6f7473
ffffaa38:	7365                	.insn	2, 0x7365
ffffaa3a:	7020                	.insn	2, 0x7020
ffffaa3c:	7265                	.insn	2, 0x7265
ffffaa3e:	5320                	.insn	2, 0x5320
ffffaa40:	6365                	.insn	2, 0x6365
ffffaa42:	3a646e6f          	jal	t3,40de8 <uart0+0x425e0>
ffffaa46:	2020                	.insn	2, 0x2020
ffffaa48:	2020                	.insn	2, 0x2020
ffffaa4a:	2020                	.insn	2, 0x2020
ffffaa4c:	2020                	.insn	2, 0x2020
ffffaa4e:	2020                	.insn	2, 0x2020
ffffaa50:	2020                	.insn	2, 0x2020
ffffaa52:	2020                	.insn	2, 0x2020
ffffaa54:	2020                	.insn	2, 0x2020
ffffaa56:	2020                	.insn	2, 0x2020
ffffaa58:	2020                	.insn	2, 0x2020
ffffaa5a:	2020                	.insn	2, 0x2020
ffffaa5c:	0000                	.insn	2, 0x
ffffaa5e:	0000                	.insn	2, 0x
ffffaa60:	9bfc                	.insn	2, 0x9bfc
ffffaa62:	ffff                	.insn	2, 0xffff
ffffaa64:	9c08                	.insn	2, 0x9c08
ffffaa66:	ffff                	.insn	2, 0xffff
ffffaa68:	9c34                	.insn	2, 0x9c34
ffffaa6a:	ffff                	.insn	2, 0xffff
ffffaa6c:	9c54                	.insn	2, 0x9c54
ffffaa6e:	ffff                	.insn	2, 0xffff
ffffaa70:	9c44                	.insn	2, 0x9c44
ffffaa72:	ffff                	.insn	2, 0xffff

ffffaa74 <__clz_tab>:
ffffaa74:	0100 0202 0303 0303 0404 0404 0404 0404     ................
ffffaa84:	0505 0505 0505 0505 0505 0505 0505 0505     ................
ffffaa94:	0606 0606 0606 0606 0606 0606 0606 0606     ................
ffffaaa4:	0606 0606 0606 0606 0606 0606 0606 0606     ................
ffffaab4:	0707 0707 0707 0707 0707 0707 0707 0707     ................
ffffaac4:	0707 0707 0707 0707 0707 0707 0707 0707     ................
ffffaad4:	0707 0707 0707 0707 0707 0707 0707 0707     ................
ffffaae4:	0707 0707 0707 0707 0707 0707 0707 0707     ................
ffffaaf4:	0808 0808 0808 0808 0808 0808 0808 0808     ................
ffffab04:	0808 0808 0808 0808 0808 0808 0808 0808     ................
ffffab14:	0808 0808 0808 0808 0808 0808 0808 0808     ................
ffffab24:	0808 0808 0808 0808 0808 0808 0808 0808     ................
ffffab34:	0808 0808 0808 0808 0808 0808 0808 0808     ................
ffffab44:	0808 0808 0808 0808 0808 0808 0808 0808     ................
ffffab54:	0808 0808 0808 0808 0808 0808 0808 0808     ................
ffffab64:	0808 0808 0808 0808 0808 0808 0808 0808     ................
