
./branch_1.elf:     file format elf32-littleriscv


Disassembly of section .text:

00000000 <_start>:
   0:	00000097          	auipc	ra,0x0
   4:	04408093          	addi	ra,ra,68 # 44 <_machine_exception_handler>
   8:	30509073          	csrrw	zero,mtvec,ra

0000000c <clear_bss>:
   c:	00001097          	auipc	ra,0x1
  10:	a6c08093          	addi	ra,ra,-1428 # a78 <uart0>
  14:	00001117          	auipc	sp,0x1
  18:	a6c10113          	addi	sp,sp,-1428 # a80 <__bss_end>
  1c:	00208863          	beq	ra,sp,2c <init_stack>
  20:	0000a023          	sw	zero,0(ra)
  24:	00408093          	addi	ra,ra,4
  28:	fe209ce3          	bne	ra,sp,20 <clear_bss+0x14>

0000002c <init_stack>:
  2c:	00020117          	auipc	sp,0x20
  30:	fd410113          	addi	sp,sp,-44 # 20000 <__stack_top>

00000034 <call_main>:
  34:	00000097          	auipc	ra,0x0
  38:	60c080e7          	jalr	ra,1548(ra) # 640 <main>
  3c:	10500073          	wfi
  40:	ffdff06f          	jal	zero,3c <call_main+0x8>

00000044 <_machine_exception_handler>:
  44:	f8410113          	addi	sp,sp,-124
  48:	00112023          	sw	ra,0(sp)
  4c:	00212223          	sw	sp,4(sp)
  50:	00312423          	sw	gp,8(sp)
  54:	00412623          	sw	tp,12(sp)
  58:	00512823          	sw	t0,16(sp)
  5c:	00612a23          	sw	t1,20(sp)
  60:	00712c23          	sw	t2,24(sp)
  64:	00812e23          	sw	s0,28(sp)
  68:	02912023          	sw	s1,32(sp)
  6c:	02a12223          	sw	a0,36(sp)
  70:	02b12423          	sw	a1,40(sp)
  74:	02c12623          	sw	a2,44(sp)
  78:	02d12823          	sw	a3,48(sp)
  7c:	02e12a23          	sw	a4,52(sp)
  80:	02f12c23          	sw	a5,56(sp)
  84:	03012e23          	sw	a6,60(sp)
  88:	05112023          	sw	a7,64(sp)
  8c:	05212223          	sw	s2,68(sp)
  90:	05312423          	sw	s3,72(sp)
  94:	05412623          	sw	s4,76(sp)
  98:	05512823          	sw	s5,80(sp)
  9c:	05612a23          	sw	s6,84(sp)
  a0:	05712c23          	sw	s7,88(sp)
  a4:	05812e23          	sw	s8,92(sp)
  a8:	07912023          	sw	s9,96(sp)
  ac:	07a12223          	sw	s10,100(sp)
  b0:	07b12423          	sw	s11,104(sp)
  b4:	07c12623          	sw	t3,108(sp)
  b8:	07d12823          	sw	t4,112(sp)
  bc:	07e12a23          	sw	t5,116(sp)
  c0:	07f12c23          	sw	t6,120(sp)
  c4:	34202573          	csrrs	a0,mcause,zero
  c8:	341025f3          	csrrs	a1,mepc,zero
  cc:	00010613          	addi	a2,sp,0
  d0:	00000097          	auipc	ra,0x0
  d4:	474080e7          	jalr	ra,1140(ra) # 544 <exception_handler>

000000d8 <_machine_exception_return>:
  d8:	00012083          	lw	ra,0(sp)
  dc:	00812183          	lw	gp,8(sp)
  e0:	00c12203          	lw	tp,12(sp)
  e4:	01012283          	lw	t0,16(sp)
  e8:	01412303          	lw	t1,20(sp)
  ec:	01812383          	lw	t2,24(sp)
  f0:	01c12403          	lw	s0,28(sp)
  f4:	02012483          	lw	s1,32(sp)
  f8:	02412503          	lw	a0,36(sp)
  fc:	02812583          	lw	a1,40(sp)
 100:	02c12603          	lw	a2,44(sp)
 104:	03012683          	lw	a3,48(sp)
 108:	03412703          	lw	a4,52(sp)
 10c:	03812783          	lw	a5,56(sp)
 110:	03c12803          	lw	a6,60(sp)
 114:	04012883          	lw	a7,64(sp)
 118:	04412903          	lw	s2,68(sp)
 11c:	04812983          	lw	s3,72(sp)
 120:	04c12a03          	lw	s4,76(sp)
 124:	05012a83          	lw	s5,80(sp)
 128:	05412b03          	lw	s6,84(sp)
 12c:	05812b83          	lw	s7,88(sp)
 130:	05c12c03          	lw	s8,92(sp)
 134:	06012c83          	lw	s9,96(sp)
 138:	06412d03          	lw	s10,100(sp)
 13c:	06812d83          	lw	s11,104(sp)
 140:	06c12e03          	lw	t3,108(sp)
 144:	07012e83          	lw	t4,112(sp)
 148:	07412f03          	lw	t5,116(sp)
 14c:	07812f83          	lw	t6,120(sp)
 150:	07c10113          	addi	sp,sp,124
 154:	30200073          	mret

00000158 <uart_initialize>:
 158:	ff010113          	addi	sp,sp,-16
 15c:	00a12623          	sw	a0,12(sp)
 160:	00b12423          	sw	a1,8(sp)
 164:	00c12783          	lw	a5,12(sp)
 168:	00812703          	lw	a4,8(sp)
 16c:	00e7a023          	sw	a4,0(a5)
 170:	00000013          	addi	zero,zero,0
 174:	01010113          	addi	sp,sp,16
 178:	00008067          	jalr	zero,0(ra)

0000017c <uart_set_divisor>:
 17c:	ff010113          	addi	sp,sp,-16
 180:	00a12623          	sw	a0,12(sp)
 184:	00b12423          	sw	a1,8(sp)
 188:	00c12783          	lw	a5,12(sp)
 18c:	0007a783          	lw	a5,0(a5)
 190:	00c78793          	addi	a5,a5,12
 194:	00812703          	lw	a4,8(sp)
 198:	00e7a023          	sw	a4,0(a5)
 19c:	00000013          	addi	zero,zero,0
 1a0:	01010113          	addi	sp,sp,16
 1a4:	00008067          	jalr	zero,0(ra)

000001a8 <uart_tx_fifo_full>:
 1a8:	ff010113          	addi	sp,sp,-16
 1ac:	00a12623          	sw	a0,12(sp)
 1b0:	00c12783          	lw	a5,12(sp)
 1b4:	0007a783          	lw	a5,0(a5)
 1b8:	00878793          	addi	a5,a5,8
 1bc:	0007a783          	lw	a5,0(a5)
 1c0:	0087f793          	andi	a5,a5,8
 1c4:	00f037b3          	sltu	a5,zero,a5
 1c8:	0ff7f793          	andi	a5,a5,255
 1cc:	00078513          	addi	a0,a5,0
 1d0:	01010113          	addi	sp,sp,16
 1d4:	00008067          	jalr	zero,0(ra)

000001d8 <uart_tx>:
 1d8:	ff010113          	addi	sp,sp,-16
 1dc:	00a12623          	sw	a0,12(sp)
 1e0:	00058793          	addi	a5,a1,0
 1e4:	00f105a3          	sb	a5,11(sp)
 1e8:	00c12783          	lw	a5,12(sp)
 1ec:	0007a783          	lw	a5,0(a5)
 1f0:	00b14703          	lbu	a4,11(sp)
 1f4:	00e7a023          	sw	a4,0(a5)
 1f8:	00000013          	addi	zero,zero,0
 1fc:	01010113          	addi	sp,sp,16
 200:	00008067          	jalr	zero,0(ra)

00000204 <uart_tx_string>:
 204:	fd010113          	addi	sp,sp,-48
 208:	02112623          	sw	ra,44(sp)
 20c:	00a12623          	sw	a0,12(sp)
 210:	00b12423          	sw	a1,8(sp)
 214:	00012e23          	sw	zero,28(sp)
 218:	0480006f          	jal	zero,260 <uart_tx_string+0x5c>
 21c:	00000013          	addi	zero,zero,0
 220:	00c12503          	lw	a0,12(sp)
 224:	00000097          	auipc	ra,0x0
 228:	f84080e7          	jalr	ra,-124(ra) # 1a8 <uart_tx_fifo_full>
 22c:	00050793          	addi	a5,a0,0
 230:	fe0798e3          	bne	a5,zero,220 <uart_tx_string+0x1c>
 234:	00812703          	lw	a4,8(sp)
 238:	01c12783          	lw	a5,28(sp)
 23c:	00f707b3          	add	a5,a4,a5
 240:	0007c783          	lbu	a5,0(a5)
 244:	00078593          	addi	a1,a5,0
 248:	00c12503          	lw	a0,12(sp)
 24c:	00000097          	auipc	ra,0x0
 250:	f8c080e7          	jalr	ra,-116(ra) # 1d8 <uart_tx>
 254:	01c12783          	lw	a5,28(sp)
 258:	00178793          	addi	a5,a5,1
 25c:	00f12e23          	sw	a5,28(sp)
 260:	00812703          	lw	a4,8(sp)
 264:	01c12783          	lw	a5,28(sp)
 268:	00f707b3          	add	a5,a4,a5
 26c:	0007c783          	lbu	a5,0(a5)
 270:	fa0796e3          	bne	a5,zero,21c <uart_tx_string+0x18>
 274:	00000013          	addi	zero,zero,0
 278:	00000013          	addi	zero,zero,0
 27c:	02c12083          	lw	ra,44(sp)
 280:	03010113          	addi	sp,sp,48
 284:	00008067          	jalr	zero,0(ra)

00000288 <uart_baud2divisor>:
 288:	fe010113          	addi	sp,sp,-32
 28c:	00112e23          	sw	ra,28(sp)
 290:	00a12623          	sw	a0,12(sp)
 294:	00b12423          	sw	a1,8(sp)
 298:	00c12783          	lw	a5,12(sp)
 29c:	00479793          	slli	a5,a5,0x4
 2a0:	00078593          	addi	a1,a5,0
 2a4:	00812503          	lw	a0,8(sp)
 2a8:	00000097          	auipc	ra,0x0
 2ac:	6dc080e7          	jalr	ra,1756(ra) # 984 <__hidden___udivsi3>
 2b0:	00050793          	addi	a5,a0,0
 2b4:	fff78793          	addi	a5,a5,-1
 2b8:	00078513          	addi	a0,a5,0
 2bc:	01c12083          	lw	ra,28(sp)
 2c0:	02010113          	addi	sp,sp,32
 2c4:	00008067          	jalr	zero,0(ra)

000002c8 <timer_initialize>:
 2c8:	ff010113          	addi	sp,sp,-16
 2cc:	00a12623          	sw	a0,12(sp)
 2d0:	00b12423          	sw	a1,8(sp)
 2d4:	00c12783          	lw	a5,12(sp)
 2d8:	00812703          	lw	a4,8(sp)
 2dc:	00e7a023          	sw	a4,0(a5)
 2e0:	00000013          	addi	zero,zero,0
 2e4:	01010113          	addi	sp,sp,16
 2e8:	00008067          	jalr	zero,0(ra)

000002ec <timer_reset>:
 2ec:	ff010113          	addi	sp,sp,-16
 2f0:	00a12623          	sw	a0,12(sp)
 2f4:	00c12783          	lw	a5,12(sp)
 2f8:	0007a783          	lw	a5,0(a5)
 2fc:	00200713          	addi	a4,zero,2
 300:	00e7a023          	sw	a4,0(a5)
 304:	00000013          	addi	zero,zero,0
 308:	01010113          	addi	sp,sp,16
 30c:	00008067          	jalr	zero,0(ra)

00000310 <timer_start>:
 310:	ff010113          	addi	sp,sp,-16
 314:	00a12623          	sw	a0,12(sp)
 318:	00c12783          	lw	a5,12(sp)
 31c:	0007a783          	lw	a5,0(a5)
 320:	00300713          	addi	a4,zero,3
 324:	00e7a023          	sw	a4,0(a5)
 328:	00000013          	addi	zero,zero,0
 32c:	01010113          	addi	sp,sp,16
 330:	00008067          	jalr	zero,0(ra)

00000334 <timer_stop>:
 334:	ff010113          	addi	sp,sp,-16
 338:	00a12623          	sw	a0,12(sp)
 33c:	00c12783          	lw	a5,12(sp)
 340:	0007a783          	lw	a5,0(a5)
 344:	0007a023          	sw	zero,0(a5)
 348:	00000013          	addi	zero,zero,0
 34c:	01010113          	addi	sp,sp,16
 350:	00008067          	jalr	zero,0(ra)

00000354 <timer_get_count>:
 354:	ff010113          	addi	sp,sp,-16
 358:	00a12623          	sw	a0,12(sp)
 35c:	00c12783          	lw	a5,12(sp)
 360:	0007a783          	lw	a5,0(a5)
 364:	00878793          	addi	a5,a5,8
 368:	0007a783          	lw	a5,0(a5)
 36c:	00078513          	addi	a0,a5,0
 370:	01010113          	addi	sp,sp,16
 374:	00008067          	jalr	zero,0(ra)

00000378 <int2string>:
 378:	fd010113          	addi	sp,sp,-48
 37c:	02112623          	sw	ra,44(sp)
 380:	00a12623          	sw	a0,12(sp)
 384:	00b12423          	sw	a1,8(sp)
 388:	00100793          	addi	a5,zero,1
 38c:	00f10fa3          	sb	a5,31(sp)
 390:	00c12783          	lw	a5,12(sp)
 394:	02079063          	bne	a5,zero,3b4 <int2string+0x3c>
 398:	00812783          	lw	a5,8(sp)
 39c:	03000713          	addi	a4,zero,48
 3a0:	00e78023          	sb	a4,0(a5)
 3a4:	00812783          	lw	a5,8(sp)
 3a8:	00178793          	addi	a5,a5,1
 3ac:	00078023          	sb	zero,0(a5)
 3b0:	1100006f          	jal	zero,4c0 <int2string+0x148>
 3b4:	00c12783          	lw	a5,12(sp)
 3b8:	0207d263          	bge	a5,zero,3dc <int2string+0x64>
 3bc:	00c12783          	lw	a5,12(sp)
 3c0:	40f007b3          	sub	a5,zero,a5
 3c4:	00f12623          	sw	a5,12(sp)
 3c8:	00812783          	lw	a5,8(sp)
 3cc:	00178713          	addi	a4,a5,1
 3d0:	00e12423          	sw	a4,8(sp)
 3d4:	02d00713          	addi	a4,zero,45
 3d8:	00e78023          	sb	a4,0(a5)
 3dc:	3b9ad7b7          	lui	a5,0x3b9ad
 3e0:	a0078793          	addi	a5,a5,-1536 # 3b9aca00 <__stack_top+0x3b98ca00>
 3e4:	00f12c23          	sw	a5,24(sp)
 3e8:	0c80006f          	jal	zero,4b0 <int2string+0x138>
 3ec:	01812583          	lw	a1,24(sp)
 3f0:	00c12503          	lw	a0,12(sp)
 3f4:	00000097          	auipc	ra,0x0
 3f8:	588080e7          	jalr	ra,1416(ra) # 97c <__divsi3>
 3fc:	00050793          	addi	a5,a0,0
 400:	02079663          	bne	a5,zero,42c <int2string+0xb4>
 404:	01f14783          	lbu	a5,31(sp)
 408:	0017c793          	xori	a5,a5,1
 40c:	0ff7f793          	andi	a5,a5,255
 410:	00078e63          	beq	a5,zero,42c <int2string+0xb4>
 414:	00812783          	lw	a5,8(sp)
 418:	00178713          	addi	a4,a5,1
 41c:	00e12423          	sw	a4,8(sp)
 420:	03000713          	addi	a4,zero,48
 424:	00e78023          	sb	a4,0(a5)
 428:	06c0006f          	jal	zero,494 <int2string+0x11c>
 42c:	01812583          	lw	a1,24(sp)
 430:	00c12503          	lw	a0,12(sp)
 434:	00000097          	auipc	ra,0x0
 438:	548080e7          	jalr	ra,1352(ra) # 97c <__divsi3>
 43c:	00050793          	addi	a5,a0,0
 440:	04078a63          	beq	a5,zero,494 <int2string+0x11c>
 444:	01812583          	lw	a1,24(sp)
 448:	00c12503          	lw	a0,12(sp)
 44c:	00000097          	auipc	ra,0x0
 450:	530080e7          	jalr	ra,1328(ra) # 97c <__divsi3>
 454:	00050793          	addi	a5,a0,0
 458:	0ff7f713          	andi	a4,a5,255
 45c:	00812783          	lw	a5,8(sp)
 460:	00178693          	addi	a3,a5,1
 464:	00d12423          	sw	a3,8(sp)
 468:	03070713          	addi	a4,a4,48
 46c:	0ff77713          	andi	a4,a4,255
 470:	00e78023          	sb	a4,0(a5)
 474:	00c12783          	lw	a5,12(sp)
 478:	01812583          	lw	a1,24(sp)
 47c:	00078513          	addi	a0,a5,0
 480:	00000097          	auipc	ra,0x0
 484:	580080e7          	jalr	ra,1408(ra) # a00 <__modsi3>
 488:	00050793          	addi	a5,a0,0
 48c:	00f12623          	sw	a5,12(sp)
 490:	00010fa3          	sb	zero,31(sp)
 494:	01812783          	lw	a5,24(sp)
 498:	00a00593          	addi	a1,zero,10
 49c:	00078513          	addi	a0,a5,0
 4a0:	00000097          	auipc	ra,0x0
 4a4:	4dc080e7          	jalr	ra,1244(ra) # 97c <__divsi3>
 4a8:	00050793          	addi	a5,a0,0
 4ac:	00f12c23          	sw	a5,24(sp)
 4b0:	01812783          	lw	a5,24(sp)
 4b4:	f2f04ce3          	blt	zero,a5,3ec <int2string+0x74>
 4b8:	00812783          	lw	a5,8(sp)
 4bc:	00078023          	sb	zero,0(a5)
 4c0:	02c12083          	lw	ra,44(sp)
 4c4:	03010113          	addi	sp,sp,48
 4c8:	00008067          	jalr	zero,0(ra)

000004cc <print_s>:
 4cc:	fe010113          	addi	sp,sp,-32
 4d0:	00112e23          	sw	ra,28(sp)
 4d4:	00a12623          	sw	a0,12(sp)
 4d8:	00b12423          	sw	a1,8(sp)
 4dc:	00812583          	lw	a1,8(sp)
 4e0:	00c12503          	lw	a0,12(sp)
 4e4:	00000097          	auipc	ra,0x0
 4e8:	d20080e7          	jalr	ra,-736(ra) # 204 <uart_tx_string>
 4ec:	00000013          	addi	zero,zero,0
 4f0:	01c12083          	lw	ra,28(sp)
 4f4:	02010113          	addi	sp,sp,32
 4f8:	00008067          	jalr	zero,0(ra)

000004fc <print_i>:
 4fc:	fd010113          	addi	sp,sp,-48
 500:	02112623          	sw	ra,44(sp)
 504:	00a12623          	sw	a0,12(sp)
 508:	00b12423          	sw	a1,8(sp)
 50c:	01410793          	addi	a5,sp,20
 510:	00078593          	addi	a1,a5,0
 514:	00812503          	lw	a0,8(sp)
 518:	00000097          	auipc	ra,0x0
 51c:	e60080e7          	jalr	ra,-416(ra) # 378 <int2string>
 520:	01410793          	addi	a5,sp,20
 524:	00078593          	addi	a1,a5,0
 528:	00c12503          	lw	a0,12(sp)
 52c:	00000097          	auipc	ra,0x0
 530:	cd8080e7          	jalr	ra,-808(ra) # 204 <uart_tx_string>
 534:	00000013          	addi	zero,zero,0
 538:	02c12083          	lw	ra,44(sp)
 53c:	03010113          	addi	sp,sp,48
 540:	00008067          	jalr	zero,0(ra)

00000544 <exception_handler>:
 544:	fb010113          	addi	sp,sp,-80
 548:	04112623          	sw	ra,76(sp)
 54c:	00a12623          	sw	a0,12(sp)
 550:	00b12423          	sw	a1,8(sp)
 554:	00c12223          	sw	a2,4(sp)
 558:	00c12783          	lw	a5,12(sp)
 55c:	03410713          	addi	a4,sp,52
 560:	00070593          	addi	a1,a4,0
 564:	00078513          	addi	a0,a5,0
 568:	00000097          	auipc	ra,0x0
 56c:	e10080e7          	jalr	ra,-496(ra) # 378 <int2string>
 570:	00812783          	lw	a5,8(sp)
 574:	02810713          	addi	a4,sp,40
 578:	00070593          	addi	a1,a4,0
 57c:	00078513          	addi	a0,a5,0
 580:	00000097          	auipc	ra,0x0
 584:	df8080e7          	jalr	ra,-520(ra) # 378 <int2string>
 588:	00412783          	lw	a5,4(sp)
 58c:	01c10713          	addi	a4,sp,28
 590:	00070593          	addi	a1,a4,0
 594:	00078513          	addi	a0,a5,0
 598:	00000097          	auipc	ra,0x0
 59c:	de0080e7          	jalr	ra,-544(ra) # 378 <int2string>
 5a0:	000017b7          	lui	a5,0x1
 5a4:	a3078593          	addi	a1,a5,-1488 # a30 <__text_end>
 5a8:	000017b7          	lui	a5,0x1
 5ac:	a7878513          	addi	a0,a5,-1416 # a78 <uart0>
 5b0:	00000097          	auipc	ra,0x0
 5b4:	c54080e7          	jalr	ra,-940(ra) # 204 <uart_tx_string>
 5b8:	03410793          	addi	a5,sp,52
 5bc:	00078593          	addi	a1,a5,0
 5c0:	000017b7          	lui	a5,0x1
 5c4:	a7878513          	addi	a0,a5,-1416 # a78 <uart0>
 5c8:	00000097          	auipc	ra,0x0
 5cc:	c3c080e7          	jalr	ra,-964(ra) # 204 <uart_tx_string>
 5d0:	000017b7          	lui	a5,0x1
 5d4:	a3c78593          	addi	a1,a5,-1476 # a3c <__text_end+0xc>
 5d8:	000017b7          	lui	a5,0x1
 5dc:	a7878513          	addi	a0,a5,-1416 # a78 <uart0>
 5e0:	00000097          	auipc	ra,0x0
 5e4:	c24080e7          	jalr	ra,-988(ra) # 204 <uart_tx_string>
 5e8:	02810793          	addi	a5,sp,40
 5ec:	00078593          	addi	a1,a5,0
 5f0:	000017b7          	lui	a5,0x1
 5f4:	a7878513          	addi	a0,a5,-1416 # a78 <uart0>
 5f8:	00000097          	auipc	ra,0x0
 5fc:	c0c080e7          	jalr	ra,-1012(ra) # 204 <uart_tx_string>
 600:	000017b7          	lui	a5,0x1
 604:	a4878593          	addi	a1,a5,-1464 # a48 <__text_end+0x18>
 608:	000017b7          	lui	a5,0x1
 60c:	a7878513          	addi	a0,a5,-1416 # a78 <uart0>
 610:	00000097          	auipc	ra,0x0
 614:	bf4080e7          	jalr	ra,-1036(ra) # 204 <uart_tx_string>
 618:	01c10793          	addi	a5,sp,28
 61c:	00078593          	addi	a1,a5,0
 620:	000017b7          	lui	a5,0x1
 624:	a7878513          	addi	a0,a5,-1416 # a78 <uart0>
 628:	00000097          	auipc	ra,0x0
 62c:	bdc080e7          	jalr	ra,-1060(ra) # 204 <uart_tx_string>
 630:	00000013          	addi	zero,zero,0
 634:	04c12083          	lw	ra,76(sp)
 638:	05010113          	addi	sp,sp,80
 63c:	00008067          	jalr	zero,0(ra)

00000640 <main>:
 640:	fd010113          	addi	sp,sp,-48
 644:	02112623          	sw	ra,44(sp)
 648:	c00005b7          	lui	a1,0xc0000
 64c:	000017b7          	lui	a5,0x1
 650:	a7c78513          	addi	a0,a5,-1412 # a7c <timer0>
 654:	00000097          	auipc	ra,0x0
 658:	c74080e7          	jalr	ra,-908(ra) # 2c8 <timer_initialize>
 65c:	000017b7          	lui	a5,0x1
 660:	a7c78513          	addi	a0,a5,-1412 # a7c <timer0>
 664:	00000097          	auipc	ra,0x0
 668:	c88080e7          	jalr	ra,-888(ra) # 2ec <timer_reset>
 66c:	c00025b7          	lui	a1,0xc0002
 670:	000017b7          	lui	a5,0x1
 674:	a7878513          	addi	a0,a5,-1416 # a78 <uart0>
 678:	00000097          	auipc	ra,0x0
 67c:	ae0080e7          	jalr	ra,-1312(ra) # 158 <uart_initialize>
 680:	02faf7b7          	lui	a5,0x2faf
 684:	08078593          	addi	a1,a5,128 # 2faf080 <__stack_top+0x2f8f080>
 688:	0001c7b7          	lui	a5,0x1c
 68c:	20078513          	addi	a0,a5,512 # 1c200 <__bss_end+0x1b780>
 690:	00000097          	auipc	ra,0x0
 694:	bf8080e7          	jalr	ra,-1032(ra) # 288 <uart_baud2divisor>
 698:	00050793          	addi	a5,a0,0
 69c:	00078593          	addi	a1,a5,0
 6a0:	000017b7          	lui	a5,0x1
 6a4:	a7878513          	addi	a0,a5,-1416 # a78 <uart0>
 6a8:	00000097          	auipc	ra,0x0
 6ac:	ad4080e7          	jalr	ra,-1324(ra) # 17c <uart_set_divisor>
 6b0:	000017b7          	lui	a5,0x1
 6b4:	a7c78513          	addi	a0,a5,-1412 # a7c <timer0>
 6b8:	00000097          	auipc	ra,0x0
 6bc:	c58080e7          	jalr	ra,-936(ra) # 310 <timer_start>
 6c0:	00012623          	sw	zero,12(sp)
 6c4:	00100793          	addi	a5,zero,1
 6c8:	00f12423          	sw	a5,8(sp)
 6cc:	00100793          	addi	a5,zero,1
 6d0:	00f12223          	sw	a5,4(sp)
 6d4:	00012823          	sw	zero,16(sp)
 6d8:	00012e23          	sw	zero,28(sp)
 6dc:	0200006f          	jal	zero,6fc <main+0xbc>
 6e0:	00c12703          	lw	a4,12(sp)
 6e4:	01c12783          	lw	a5,28(sp)
 6e8:	00f707b3          	add	a5,a4,a5
 6ec:	00f12623          	sw	a5,12(sp)
 6f0:	01c12783          	lw	a5,28(sp)
 6f4:	00178793          	addi	a5,a5,1
 6f8:	00f12e23          	sw	a5,28(sp)
 6fc:	01c12703          	lw	a4,28(sp)
 700:	00900793          	addi	a5,zero,9
 704:	fce7dee3          	bge	a5,a4,6e0 <main+0xa0>
 708:	00012c23          	sw	zero,24(sp)
 70c:	0540006f          	jal	zero,760 <main+0x120>
 710:	00012a23          	sw	zero,20(sp)
 714:	0340006f          	jal	zero,748 <main+0x108>
 718:	01412583          	lw	a1,20(sp)
 71c:	01812503          	lw	a0,24(sp)
 720:	00000097          	auipc	ra,0x0
 724:	238080e7          	jalr	ra,568(ra) # 958 <__mulsi3>
 728:	00050793          	addi	a5,a0,0
 72c:	00078713          	addi	a4,a5,0
 730:	00812783          	lw	a5,8(sp)
 734:	00f707b3          	add	a5,a4,a5
 738:	00f12423          	sw	a5,8(sp)
 73c:	01412783          	lw	a5,20(sp)
 740:	00178793          	addi	a5,a5,1
 744:	00f12a23          	sw	a5,20(sp)
 748:	01412703          	lw	a4,20(sp)
 74c:	00400793          	addi	a5,zero,4
 750:	fce7d4e3          	bge	a5,a4,718 <main+0xd8>
 754:	01812783          	lw	a5,24(sp)
 758:	00178793          	addi	a5,a5,1
 75c:	00f12c23          	sw	a5,24(sp)
 760:	01812703          	lw	a4,24(sp)
 764:	00400793          	addi	a5,zero,4
 768:	fae7d4e3          	bge	a5,a4,710 <main+0xd0>
 76c:	00812783          	lw	a5,8(sp)
 770:	02f05063          	bge	zero,a5,790 <main+0x150>
 774:	00812783          	lw	a5,8(sp)
 778:	00179793          	slli	a5,a5,0x1
 77c:	00f12223          	sw	a5,4(sp)
 780:	0100006f          	jal	zero,790 <main+0x150>
 784:	00412783          	lw	a5,4(sp)
 788:	fff78793          	addi	a5,a5,-1
 78c:	00f12223          	sw	a5,4(sp)
 790:	00412783          	lw	a5,4(sp)
 794:	fef048e3          	blt	zero,a5,784 <main+0x144>
 798:	00c12703          	lw	a4,12(sp)
 79c:	41f75793          	srai	a5,a4,0x1f
 7a0:	01e7d793          	srli	a5,a5,0x1e
 7a4:	00f70733          	add	a4,a4,a5
 7a8:	00377713          	andi	a4,a4,3
 7ac:	40f707b3          	sub	a5,a4,a5
 7b0:	00200713          	addi	a4,zero,2
 7b4:	02e78a63          	beq	a5,a4,7e8 <main+0x1a8>
 7b8:	00200713          	addi	a4,zero,2
 7bc:	02f74c63          	blt	a4,a5,7f4 <main+0x1b4>
 7c0:	00078863          	beq	a5,zero,7d0 <main+0x190>
 7c4:	00100713          	addi	a4,zero,1
 7c8:	00e78a63          	beq	a5,a4,7dc <main+0x19c>
 7cc:	0280006f          	jal	zero,7f4 <main+0x1b4>
 7d0:	00c12783          	lw	a5,12(sp)
 7d4:	00178793          	addi	a5,a5,1
 7d8:	00f12623          	sw	a5,12(sp)
 7dc:	00c12783          	lw	a5,12(sp)
 7e0:	00278793          	addi	a5,a5,2
 7e4:	00f12623          	sw	a5,12(sp)
 7e8:	00c12783          	lw	a5,12(sp)
 7ec:	00378793          	addi	a5,a5,3
 7f0:	00f12623          	sw	a5,12(sp)
 7f4:	00c12783          	lw	a5,12(sp)
 7f8:	00478793          	addi	a5,a5,4
 7fc:	00f12623          	sw	a5,12(sp)
 800:	000017b7          	lui	a5,0x1
 804:	a7c78513          	addi	a0,a5,-1412 # a7c <timer0>
 808:	00000097          	auipc	ra,0x0
 80c:	b2c080e7          	jalr	ra,-1236(ra) # 334 <timer_stop>
 810:	000017b7          	lui	a5,0x1
 814:	a7c78513          	addi	a0,a5,-1412 # a7c <timer0>
 818:	00000097          	auipc	ra,0x0
 81c:	b3c080e7          	jalr	ra,-1220(ra) # 354 <timer_get_count>
 820:	00050793          	addi	a5,a0,0
 824:	00f12823          	sw	a5,16(sp)
 828:	000017b7          	lui	a5,0x1
 82c:	a5078593          	addi	a1,a5,-1456 # a50 <__text_end+0x20>
 830:	000017b7          	lui	a5,0x1
 834:	a7878513          	addi	a0,a5,-1416 # a78 <uart0>
 838:	00000097          	auipc	ra,0x0
 83c:	c94080e7          	jalr	ra,-876(ra) # 4cc <print_s>
 840:	01012583          	lw	a1,16(sp)
 844:	000017b7          	lui	a5,0x1
 848:	a7878513          	addi	a0,a5,-1416 # a78 <uart0>
 84c:	00000097          	auipc	ra,0x0
 850:	cb0080e7          	jalr	ra,-848(ra) # 4fc <print_i>
 854:	000017b7          	lui	a5,0x1
 858:	a6878593          	addi	a1,a5,-1432 # a68 <__text_end+0x38>
 85c:	000017b7          	lui	a5,0x1
 860:	a7878513          	addi	a0,a5,-1416 # a78 <uart0>
 864:	00000097          	auipc	ra,0x0
 868:	c68080e7          	jalr	ra,-920(ra) # 4cc <print_s>
 86c:	000017b7          	lui	a5,0x1
 870:	a6c78593          	addi	a1,a5,-1428 # a6c <__text_end+0x3c>
 874:	000017b7          	lui	a5,0x1
 878:	a7878513          	addi	a0,a5,-1416 # a78 <uart0>
 87c:	00000097          	auipc	ra,0x0
 880:	c50080e7          	jalr	ra,-944(ra) # 4cc <print_s>
 884:	00c12783          	lw	a5,12(sp)
 888:	00078593          	addi	a1,a5,0
 88c:	000017b7          	lui	a5,0x1
 890:	a7878513          	addi	a0,a5,-1416 # a78 <uart0>
 894:	00000097          	auipc	ra,0x0
 898:	c68080e7          	jalr	ra,-920(ra) # 4fc <print_i>
 89c:	000017b7          	lui	a5,0x1
 8a0:	a6878593          	addi	a1,a5,-1432 # a68 <__text_end+0x38>
 8a4:	000017b7          	lui	a5,0x1
 8a8:	a7878513          	addi	a0,a5,-1416 # a78 <uart0>
 8ac:	00000097          	auipc	ra,0x0
 8b0:	c20080e7          	jalr	ra,-992(ra) # 4cc <print_s>
 8b4:	000017b7          	lui	a5,0x1
 8b8:	a7078593          	addi	a1,a5,-1424 # a70 <__text_end+0x40>
 8bc:	000017b7          	lui	a5,0x1
 8c0:	a7878513          	addi	a0,a5,-1416 # a78 <uart0>
 8c4:	00000097          	auipc	ra,0x0
 8c8:	c08080e7          	jalr	ra,-1016(ra) # 4cc <print_s>
 8cc:	00812783          	lw	a5,8(sp)
 8d0:	00078593          	addi	a1,a5,0
 8d4:	000017b7          	lui	a5,0x1
 8d8:	a7878513          	addi	a0,a5,-1416 # a78 <uart0>
 8dc:	00000097          	auipc	ra,0x0
 8e0:	c20080e7          	jalr	ra,-992(ra) # 4fc <print_i>
 8e4:	000017b7          	lui	a5,0x1
 8e8:	a6878593          	addi	a1,a5,-1432 # a68 <__text_end+0x38>
 8ec:	000017b7          	lui	a5,0x1
 8f0:	a7878513          	addi	a0,a5,-1416 # a78 <uart0>
 8f4:	00000097          	auipc	ra,0x0
 8f8:	bd8080e7          	jalr	ra,-1064(ra) # 4cc <print_s>
 8fc:	000017b7          	lui	a5,0x1
 900:	a7478593          	addi	a1,a5,-1420 # a74 <__text_end+0x44>
 904:	000017b7          	lui	a5,0x1
 908:	a7878513          	addi	a0,a5,-1416 # a78 <uart0>
 90c:	00000097          	auipc	ra,0x0
 910:	bc0080e7          	jalr	ra,-1088(ra) # 4cc <print_s>
 914:	00412783          	lw	a5,4(sp)
 918:	00078593          	addi	a1,a5,0
 91c:	000017b7          	lui	a5,0x1
 920:	a7878513          	addi	a0,a5,-1416 # a78 <uart0>
 924:	00000097          	auipc	ra,0x0
 928:	bd8080e7          	jalr	ra,-1064(ra) # 4fc <print_i>
 92c:	000017b7          	lui	a5,0x1
 930:	a6878593          	addi	a1,a5,-1432 # a68 <__text_end+0x38>
 934:	000017b7          	lui	a5,0x1
 938:	a7878513          	addi	a0,a5,-1416 # a78 <uart0>
 93c:	00000097          	auipc	ra,0x0
 940:	b90080e7          	jalr	ra,-1136(ra) # 4cc <print_s>
 944:	00000793          	addi	a5,zero,0
 948:	00078513          	addi	a0,a5,0
 94c:	02c12083          	lw	ra,44(sp)
 950:	03010113          	addi	sp,sp,48
 954:	00008067          	jalr	zero,0(ra)

00000958 <__mulsi3>:
 958:	00050613          	addi	a2,a0,0
 95c:	00000513          	addi	a0,zero,0
 960:	0015f693          	andi	a3,a1,1
 964:	00068463          	beq	a3,zero,96c <__mulsi3+0x14>
 968:	00c50533          	add	a0,a0,a2
 96c:	0015d593          	srli	a1,a1,0x1
 970:	00161613          	slli	a2,a2,0x1
 974:	fe0596e3          	bne	a1,zero,960 <__mulsi3+0x8>
 978:	00008067          	jalr	zero,0(ra)

0000097c <__divsi3>:
 97c:	06054063          	blt	a0,zero,9dc <__umodsi3+0x10>
 980:	0605c663          	blt	a1,zero,9ec <__umodsi3+0x20>

00000984 <__hidden___udivsi3>:
 984:	00058613          	addi	a2,a1,0 # c0002000 <__stack_top+0xbffe2000>
 988:	00050593          	addi	a1,a0,0
 98c:	fff00513          	addi	a0,zero,-1
 990:	02060c63          	beq	a2,zero,9c8 <__hidden___udivsi3+0x44>
 994:	00100693          	addi	a3,zero,1
 998:	00b67a63          	bgeu	a2,a1,9ac <__hidden___udivsi3+0x28>
 99c:	00c05863          	bge	zero,a2,9ac <__hidden___udivsi3+0x28>
 9a0:	00161613          	slli	a2,a2,0x1
 9a4:	00169693          	slli	a3,a3,0x1
 9a8:	feb66ae3          	bltu	a2,a1,99c <__hidden___udivsi3+0x18>
 9ac:	00000513          	addi	a0,zero,0
 9b0:	00c5e663          	bltu	a1,a2,9bc <__hidden___udivsi3+0x38>
 9b4:	40c585b3          	sub	a1,a1,a2
 9b8:	00d56533          	or	a0,a0,a3
 9bc:	0016d693          	srli	a3,a3,0x1
 9c0:	00165613          	srli	a2,a2,0x1
 9c4:	fe0696e3          	bne	a3,zero,9b0 <__hidden___udivsi3+0x2c>
 9c8:	00008067          	jalr	zero,0(ra)

000009cc <__umodsi3>:
 9cc:	00008293          	addi	t0,ra,0
 9d0:	fb5ff0ef          	jal	ra,984 <__hidden___udivsi3>
 9d4:	00058513          	addi	a0,a1,0
 9d8:	00028067          	jalr	zero,0(t0)
 9dc:	40a00533          	sub	a0,zero,a0
 9e0:	00b04863          	blt	zero,a1,9f0 <__umodsi3+0x24>
 9e4:	40b005b3          	sub	a1,zero,a1
 9e8:	f9dff06f          	jal	zero,984 <__hidden___udivsi3>
 9ec:	40b005b3          	sub	a1,zero,a1
 9f0:	00008293          	addi	t0,ra,0
 9f4:	f91ff0ef          	jal	ra,984 <__hidden___udivsi3>
 9f8:	40a00533          	sub	a0,zero,a0
 9fc:	00028067          	jalr	zero,0(t0)

00000a00 <__modsi3>:
 a00:	00008293          	addi	t0,ra,0
 a04:	0005ca63          	blt	a1,zero,a18 <__modsi3+0x18>
 a08:	00054c63          	blt	a0,zero,a20 <__modsi3+0x20>
 a0c:	f79ff0ef          	jal	ra,984 <__hidden___udivsi3>
 a10:	00058513          	addi	a0,a1,0
 a14:	00028067          	jalr	zero,0(t0)
 a18:	40b005b3          	sub	a1,zero,a1
 a1c:	fe0558e3          	bge	a0,zero,a0c <__modsi3+0xc>
 a20:	40a00533          	sub	a0,zero,a0
 a24:	f61ff0ef          	jal	ra,984 <__hidden___udivsi3>
 a28:	40b00533          	sub	a0,zero,a1
 a2c:	00028067          	jalr	zero,0(t0)
