
./branch_1.elf:     file format elf32-littleriscv


Disassembly of section .text:

00000000 <_start>:
   0:	00000097          	auipc	ra,0x0
   4:	04408093          	addi	ra,ra,68 # 44 <_machine_exception_handler>
   8:	30509073          	csrrw	zero,mtvec,ra

0000000c <clear_bss>:
   c:	00001097          	auipc	ra,0x1
  10:	95808093          	addi	ra,ra,-1704 # 964 <uart0>
  14:	00001117          	auipc	sp,0x1
  18:	95810113          	addi	sp,sp,-1704 # 96c <__bss_end>
  1c:	00208863          	beq	ra,sp,2c <init_stack>
  20:	0000a023          	sw	zero,0(ra)
  24:	00408093          	addi	ra,ra,4
  28:	fe209ce3          	bne	ra,sp,20 <clear_bss+0x14>

0000002c <init_stack>:
  2c:	00020117          	auipc	sp,0x20
  30:	fd410113          	addi	sp,sp,-44 # 20000 <__stack_top>

00000034 <call_main>:
  34:	00000097          	auipc	ra,0x0
  38:	518080e7          	jalr	ra,1304(ra) # 54c <main>
  3c:	10500073          	wfi
  40:	ffdff06f          	jal	zero,3c <call_main+0x8>

00000044 <_machine_exception_handler>:
  44:	f8410113          	addi	sp,sp,-124
  48:	00112023          	sw	ra,0(sp)
  4c:	00212223          	sw	sp,4(sp)
  50:	00312423          	sw	gp,8(sp)
  54:	00412623          	sw	tp,12(sp)
  58:	00512823          	sw	t0,16(sp)
  5c:	00612a23          	sw	t1,20(sp)
  60:	00712c23          	sw	t2,24(sp)
  64:	00812e23          	sw	s0,28(sp)
  68:	02912023          	sw	s1,32(sp)
  6c:	02a12223          	sw	a0,36(sp)
  70:	02b12423          	sw	a1,40(sp)
  74:	02c12623          	sw	a2,44(sp)
  78:	02d12823          	sw	a3,48(sp)
  7c:	02e12a23          	sw	a4,52(sp)
  80:	02f12c23          	sw	a5,56(sp)
  84:	03012e23          	sw	a6,60(sp)
  88:	05112023          	sw	a7,64(sp)
  8c:	05212223          	sw	s2,68(sp)
  90:	05312423          	sw	s3,72(sp)
  94:	05412623          	sw	s4,76(sp)
  98:	05512823          	sw	s5,80(sp)
  9c:	05612a23          	sw	s6,84(sp)
  a0:	05712c23          	sw	s7,88(sp)
  a4:	05812e23          	sw	s8,92(sp)
  a8:	07912023          	sw	s9,96(sp)
  ac:	07a12223          	sw	s10,100(sp)
  b0:	07b12423          	sw	s11,104(sp)
  b4:	07c12623          	sw	t3,108(sp)
  b8:	07d12823          	sw	t4,112(sp)
  bc:	07e12a23          	sw	t5,116(sp)
  c0:	07f12c23          	sw	t6,120(sp)
  c4:	34202573          	csrrs	a0,mcause,zero
  c8:	341025f3          	csrrs	a1,mepc,zero
  cc:	00010613          	addi	a2,sp,0
  d0:	00000097          	auipc	ra,0x0
  d4:	474080e7          	jalr	ra,1140(ra) # 544 <exception_handler>

000000d8 <_machine_exception_return>:
  d8:	00012083          	lw	ra,0(sp)
  dc:	00812183          	lw	gp,8(sp)
  e0:	00c12203          	lw	tp,12(sp)
  e4:	01012283          	lw	t0,16(sp)
  e8:	01412303          	lw	t1,20(sp)
  ec:	01812383          	lw	t2,24(sp)
  f0:	01c12403          	lw	s0,28(sp)
  f4:	02012483          	lw	s1,32(sp)
  f8:	02412503          	lw	a0,36(sp)
  fc:	02812583          	lw	a1,40(sp)
 100:	02c12603          	lw	a2,44(sp)
 104:	03012683          	lw	a3,48(sp)
 108:	03412703          	lw	a4,52(sp)
 10c:	03812783          	lw	a5,56(sp)
 110:	03c12803          	lw	a6,60(sp)
 114:	04012883          	lw	a7,64(sp)
 118:	04412903          	lw	s2,68(sp)
 11c:	04812983          	lw	s3,72(sp)
 120:	04c12a03          	lw	s4,76(sp)
 124:	05012a83          	lw	s5,80(sp)
 128:	05412b03          	lw	s6,84(sp)
 12c:	05812b83          	lw	s7,88(sp)
 130:	05c12c03          	lw	s8,92(sp)
 134:	06012c83          	lw	s9,96(sp)
 138:	06412d03          	lw	s10,100(sp)
 13c:	06812d83          	lw	s11,104(sp)
 140:	06c12e03          	lw	t3,108(sp)
 144:	07012e83          	lw	t4,112(sp)
 148:	07412f03          	lw	t5,116(sp)
 14c:	07812f83          	lw	t6,120(sp)
 150:	07c10113          	addi	sp,sp,124
 154:	30200073          	mret

00000158 <uart_initialize>:
 158:	ff010113          	addi	sp,sp,-16
 15c:	00a12623          	sw	a0,12(sp)
 160:	00b12423          	sw	a1,8(sp)
 164:	00c12783          	lw	a5,12(sp)
 168:	00812703          	lw	a4,8(sp)
 16c:	00e7a023          	sw	a4,0(a5)
 170:	00000013          	addi	zero,zero,0
 174:	01010113          	addi	sp,sp,16
 178:	00008067          	jalr	zero,0(ra)

0000017c <uart_set_divisor>:
 17c:	ff010113          	addi	sp,sp,-16
 180:	00a12623          	sw	a0,12(sp)
 184:	00b12423          	sw	a1,8(sp)
 188:	00c12783          	lw	a5,12(sp)
 18c:	0007a783          	lw	a5,0(a5)
 190:	00c78793          	addi	a5,a5,12
 194:	00812703          	lw	a4,8(sp)
 198:	00e7a023          	sw	a4,0(a5)
 19c:	00000013          	addi	zero,zero,0
 1a0:	01010113          	addi	sp,sp,16
 1a4:	00008067          	jalr	zero,0(ra)

000001a8 <uart_tx_fifo_full>:
 1a8:	ff010113          	addi	sp,sp,-16
 1ac:	00a12623          	sw	a0,12(sp)
 1b0:	00c12783          	lw	a5,12(sp)
 1b4:	0007a783          	lw	a5,0(a5)
 1b8:	00878793          	addi	a5,a5,8
 1bc:	0007a783          	lw	a5,0(a5)
 1c0:	0087f793          	andi	a5,a5,8
 1c4:	00f037b3          	sltu	a5,zero,a5
 1c8:	0ff7f793          	andi	a5,a5,255
 1cc:	00078513          	addi	a0,a5,0
 1d0:	01010113          	addi	sp,sp,16
 1d4:	00008067          	jalr	zero,0(ra)

000001d8 <uart_tx>:
 1d8:	ff010113          	addi	sp,sp,-16
 1dc:	00a12623          	sw	a0,12(sp)
 1e0:	00058793          	addi	a5,a1,0
 1e4:	00f105a3          	sb	a5,11(sp)
 1e8:	00c12783          	lw	a5,12(sp)
 1ec:	0007a783          	lw	a5,0(a5)
 1f0:	00b14703          	lbu	a4,11(sp)
 1f4:	00e7a023          	sw	a4,0(a5)
 1f8:	00000013          	addi	zero,zero,0
 1fc:	01010113          	addi	sp,sp,16
 200:	00008067          	jalr	zero,0(ra)

00000204 <uart_tx_string>:
 204:	fd010113          	addi	sp,sp,-48
 208:	02112623          	sw	ra,44(sp)
 20c:	00a12623          	sw	a0,12(sp)
 210:	00b12423          	sw	a1,8(sp)
 214:	00012e23          	sw	zero,28(sp)
 218:	0480006f          	jal	zero,260 <uart_tx_string+0x5c>
 21c:	00000013          	addi	zero,zero,0
 220:	00c12503          	lw	a0,12(sp)
 224:	00000097          	auipc	ra,0x0
 228:	f84080e7          	jalr	ra,-124(ra) # 1a8 <uart_tx_fifo_full>
 22c:	00050793          	addi	a5,a0,0
 230:	fe0798e3          	bne	a5,zero,220 <uart_tx_string+0x1c>
 234:	00812703          	lw	a4,8(sp)
 238:	01c12783          	lw	a5,28(sp)
 23c:	00f707b3          	add	a5,a4,a5
 240:	0007c783          	lbu	a5,0(a5)
 244:	00078593          	addi	a1,a5,0
 248:	00c12503          	lw	a0,12(sp)
 24c:	00000097          	auipc	ra,0x0
 250:	f8c080e7          	jalr	ra,-116(ra) # 1d8 <uart_tx>
 254:	01c12783          	lw	a5,28(sp)
 258:	00178793          	addi	a5,a5,1
 25c:	00f12e23          	sw	a5,28(sp)
 260:	00812703          	lw	a4,8(sp)
 264:	01c12783          	lw	a5,28(sp)
 268:	00f707b3          	add	a5,a4,a5
 26c:	0007c783          	lbu	a5,0(a5)
 270:	fa0796e3          	bne	a5,zero,21c <uart_tx_string+0x18>
 274:	00000013          	addi	zero,zero,0
 278:	00000013          	addi	zero,zero,0
 27c:	02c12083          	lw	ra,44(sp)
 280:	03010113          	addi	sp,sp,48
 284:	00008067          	jalr	zero,0(ra)

00000288 <uart_baud2divisor>:
 288:	fe010113          	addi	sp,sp,-32
 28c:	00112e23          	sw	ra,28(sp)
 290:	00a12623          	sw	a0,12(sp)
 294:	00b12423          	sw	a1,8(sp)
 298:	00c12783          	lw	a5,12(sp)
 29c:	00479793          	slli	a5,a5,0x4
 2a0:	00078593          	addi	a1,a5,0
 2a4:	00812503          	lw	a0,8(sp)
 2a8:	00000097          	auipc	ra,0x0
 2ac:	5e8080e7          	jalr	ra,1512(ra) # 890 <__hidden___udivsi3>
 2b0:	00050793          	addi	a5,a0,0
 2b4:	fff78793          	addi	a5,a5,-1
 2b8:	00078513          	addi	a0,a5,0
 2bc:	01c12083          	lw	ra,28(sp)
 2c0:	02010113          	addi	sp,sp,32
 2c4:	00008067          	jalr	zero,0(ra)

000002c8 <timer_initialize>:
 2c8:	ff010113          	addi	sp,sp,-16
 2cc:	00a12623          	sw	a0,12(sp)
 2d0:	00b12423          	sw	a1,8(sp)
 2d4:	00c12783          	lw	a5,12(sp)
 2d8:	00812703          	lw	a4,8(sp)
 2dc:	00e7a023          	sw	a4,0(a5)
 2e0:	00000013          	addi	zero,zero,0
 2e4:	01010113          	addi	sp,sp,16
 2e8:	00008067          	jalr	zero,0(ra)

000002ec <timer_reset>:
 2ec:	ff010113          	addi	sp,sp,-16
 2f0:	00a12623          	sw	a0,12(sp)
 2f4:	00c12783          	lw	a5,12(sp)
 2f8:	0007a783          	lw	a5,0(a5)
 2fc:	00200713          	addi	a4,zero,2
 300:	00e7a023          	sw	a4,0(a5)
 304:	00000013          	addi	zero,zero,0
 308:	01010113          	addi	sp,sp,16
 30c:	00008067          	jalr	zero,0(ra)

00000310 <timer_start>:
 310:	ff010113          	addi	sp,sp,-16
 314:	00a12623          	sw	a0,12(sp)
 318:	00c12783          	lw	a5,12(sp)
 31c:	0007a783          	lw	a5,0(a5)
 320:	00300713          	addi	a4,zero,3
 324:	00e7a023          	sw	a4,0(a5)
 328:	00000013          	addi	zero,zero,0
 32c:	01010113          	addi	sp,sp,16
 330:	00008067          	jalr	zero,0(ra)

00000334 <timer_stop>:
 334:	ff010113          	addi	sp,sp,-16
 338:	00a12623          	sw	a0,12(sp)
 33c:	00c12783          	lw	a5,12(sp)
 340:	0007a783          	lw	a5,0(a5)
 344:	0007a023          	sw	zero,0(a5)
 348:	00000013          	addi	zero,zero,0
 34c:	01010113          	addi	sp,sp,16
 350:	00008067          	jalr	zero,0(ra)

00000354 <timer_get_count>:
 354:	ff010113          	addi	sp,sp,-16
 358:	00a12623          	sw	a0,12(sp)
 35c:	00c12783          	lw	a5,12(sp)
 360:	0007a783          	lw	a5,0(a5)
 364:	00878793          	addi	a5,a5,8
 368:	0007a783          	lw	a5,0(a5)
 36c:	00078513          	addi	a0,a5,0
 370:	01010113          	addi	sp,sp,16
 374:	00008067          	jalr	zero,0(ra)

00000378 <int2string>:
 378:	fd010113          	addi	sp,sp,-48
 37c:	02112623          	sw	ra,44(sp)
 380:	00a12623          	sw	a0,12(sp)
 384:	00b12423          	sw	a1,8(sp)
 388:	00100793          	addi	a5,zero,1
 38c:	00f10fa3          	sb	a5,31(sp)
 390:	00c12783          	lw	a5,12(sp)
 394:	02079063          	bne	a5,zero,3b4 <int2string+0x3c>
 398:	00812783          	lw	a5,8(sp)
 39c:	03000713          	addi	a4,zero,48
 3a0:	00e78023          	sb	a4,0(a5)
 3a4:	00812783          	lw	a5,8(sp)
 3a8:	00178793          	addi	a5,a5,1
 3ac:	00078023          	sb	zero,0(a5)
 3b0:	1100006f          	jal	zero,4c0 <int2string+0x148>
 3b4:	00c12783          	lw	a5,12(sp)
 3b8:	0207d263          	bge	a5,zero,3dc <int2string+0x64>
 3bc:	00c12783          	lw	a5,12(sp)
 3c0:	40f007b3          	sub	a5,zero,a5
 3c4:	00f12623          	sw	a5,12(sp)
 3c8:	00812783          	lw	a5,8(sp)
 3cc:	00178713          	addi	a4,a5,1
 3d0:	00e12423          	sw	a4,8(sp)
 3d4:	02d00713          	addi	a4,zero,45
 3d8:	00e78023          	sb	a4,0(a5)
 3dc:	3b9ad7b7          	lui	a5,0x3b9ad
 3e0:	a0078793          	addi	a5,a5,-1536 # 3b9aca00 <__stack_top+0x3b98ca00>
 3e4:	00f12c23          	sw	a5,24(sp)
 3e8:	0c80006f          	jal	zero,4b0 <int2string+0x138>
 3ec:	01812583          	lw	a1,24(sp)
 3f0:	00c12503          	lw	a0,12(sp)
 3f4:	00000097          	auipc	ra,0x0
 3f8:	494080e7          	jalr	ra,1172(ra) # 888 <__divsi3>
 3fc:	00050793          	addi	a5,a0,0
 400:	02079663          	bne	a5,zero,42c <int2string+0xb4>
 404:	01f14783          	lbu	a5,31(sp)
 408:	0017c793          	xori	a5,a5,1
 40c:	0ff7f793          	andi	a5,a5,255
 410:	00078e63          	beq	a5,zero,42c <int2string+0xb4>
 414:	00812783          	lw	a5,8(sp)
 418:	00178713          	addi	a4,a5,1
 41c:	00e12423          	sw	a4,8(sp)
 420:	03000713          	addi	a4,zero,48
 424:	00e78023          	sb	a4,0(a5)
 428:	06c0006f          	jal	zero,494 <int2string+0x11c>
 42c:	01812583          	lw	a1,24(sp)
 430:	00c12503          	lw	a0,12(sp)
 434:	00000097          	auipc	ra,0x0
 438:	454080e7          	jalr	ra,1108(ra) # 888 <__divsi3>
 43c:	00050793          	addi	a5,a0,0
 440:	04078a63          	beq	a5,zero,494 <int2string+0x11c>
 444:	01812583          	lw	a1,24(sp)
 448:	00c12503          	lw	a0,12(sp)
 44c:	00000097          	auipc	ra,0x0
 450:	43c080e7          	jalr	ra,1084(ra) # 888 <__divsi3>
 454:	00050793          	addi	a5,a0,0
 458:	0ff7f713          	andi	a4,a5,255
 45c:	00812783          	lw	a5,8(sp)
 460:	00178693          	addi	a3,a5,1
 464:	00d12423          	sw	a3,8(sp)
 468:	03070713          	addi	a4,a4,48
 46c:	0ff77713          	andi	a4,a4,255
 470:	00e78023          	sb	a4,0(a5)
 474:	00c12783          	lw	a5,12(sp)
 478:	01812583          	lw	a1,24(sp)
 47c:	00078513          	addi	a0,a5,0
 480:	00000097          	auipc	ra,0x0
 484:	48c080e7          	jalr	ra,1164(ra) # 90c <__modsi3>
 488:	00050793          	addi	a5,a0,0
 48c:	00f12623          	sw	a5,12(sp)
 490:	00010fa3          	sb	zero,31(sp)
 494:	01812783          	lw	a5,24(sp)
 498:	00a00593          	addi	a1,zero,10
 49c:	00078513          	addi	a0,a5,0
 4a0:	00000097          	auipc	ra,0x0
 4a4:	3e8080e7          	jalr	ra,1000(ra) # 888 <__divsi3>
 4a8:	00050793          	addi	a5,a0,0
 4ac:	00f12c23          	sw	a5,24(sp)
 4b0:	01812783          	lw	a5,24(sp)
 4b4:	f2f04ce3          	blt	zero,a5,3ec <int2string+0x74>
 4b8:	00812783          	lw	a5,8(sp)
 4bc:	00078023          	sb	zero,0(a5)
 4c0:	02c12083          	lw	ra,44(sp)
 4c4:	03010113          	addi	sp,sp,48
 4c8:	00008067          	jalr	zero,0(ra)

000004cc <print_s>:
 4cc:	fe010113          	addi	sp,sp,-32
 4d0:	00112e23          	sw	ra,28(sp)
 4d4:	00a12623          	sw	a0,12(sp)
 4d8:	00b12423          	sw	a1,8(sp)
 4dc:	00812583          	lw	a1,8(sp)
 4e0:	00c12503          	lw	a0,12(sp)
 4e4:	00000097          	auipc	ra,0x0
 4e8:	d20080e7          	jalr	ra,-736(ra) # 204 <uart_tx_string>
 4ec:	00000013          	addi	zero,zero,0
 4f0:	01c12083          	lw	ra,28(sp)
 4f4:	02010113          	addi	sp,sp,32
 4f8:	00008067          	jalr	zero,0(ra)

000004fc <print_i>:
 4fc:	fd010113          	addi	sp,sp,-48
 500:	02112623          	sw	ra,44(sp)
 504:	00a12623          	sw	a0,12(sp)
 508:	00b12423          	sw	a1,8(sp)
 50c:	01410793          	addi	a5,sp,20
 510:	00078593          	addi	a1,a5,0
 514:	00812503          	lw	a0,8(sp)
 518:	00000097          	auipc	ra,0x0
 51c:	e60080e7          	jalr	ra,-416(ra) # 378 <int2string>
 520:	01410793          	addi	a5,sp,20
 524:	00078593          	addi	a1,a5,0
 528:	00c12503          	lw	a0,12(sp)
 52c:	00000097          	auipc	ra,0x0
 530:	cd8080e7          	jalr	ra,-808(ra) # 204 <uart_tx_string>
 534:	00000013          	addi	zero,zero,0
 538:	02c12083          	lw	ra,44(sp)
 53c:	03010113          	addi	sp,sp,48
 540:	00008067          	jalr	zero,0(ra)

00000544 <exception_handler>:
 544:	00000013          	addi	zero,zero,0
 548:	00008067          	jalr	zero,0(ra)

0000054c <main>:
 54c:	fd010113          	addi	sp,sp,-48
 550:	02112623          	sw	ra,44(sp)
 554:	c00005b7          	lui	a1,0xc0000
 558:	000017b7          	lui	a5,0x1
 55c:	96878513          	addi	a0,a5,-1688 # 968 <timer0>
 560:	00000097          	auipc	ra,0x0
 564:	d68080e7          	jalr	ra,-664(ra) # 2c8 <timer_initialize>
 568:	000017b7          	lui	a5,0x1
 56c:	96878513          	addi	a0,a5,-1688 # 968 <timer0>
 570:	00000097          	auipc	ra,0x0
 574:	d7c080e7          	jalr	ra,-644(ra) # 2ec <timer_reset>
 578:	c00025b7          	lui	a1,0xc0002
 57c:	000017b7          	lui	a5,0x1
 580:	96478513          	addi	a0,a5,-1692 # 964 <uart0>
 584:	00000097          	auipc	ra,0x0
 588:	bd4080e7          	jalr	ra,-1068(ra) # 158 <uart_initialize>
 58c:	02faf7b7          	lui	a5,0x2faf
 590:	08078593          	addi	a1,a5,128 # 2faf080 <__stack_top+0x2f8f080>
 594:	0001c7b7          	lui	a5,0x1c
 598:	20078513          	addi	a0,a5,512 # 1c200 <__bss_end+0x1b894>
 59c:	00000097          	auipc	ra,0x0
 5a0:	cec080e7          	jalr	ra,-788(ra) # 288 <uart_baud2divisor>
 5a4:	00050793          	addi	a5,a0,0
 5a8:	00078593          	addi	a1,a5,0
 5ac:	000017b7          	lui	a5,0x1
 5b0:	96478513          	addi	a0,a5,-1692 # 964 <uart0>
 5b4:	00000097          	auipc	ra,0x0
 5b8:	bc8080e7          	jalr	ra,-1080(ra) # 17c <uart_set_divisor>
 5bc:	000017b7          	lui	a5,0x1
 5c0:	96878513          	addi	a0,a5,-1688 # 968 <timer0>
 5c4:	00000097          	auipc	ra,0x0
 5c8:	d4c080e7          	jalr	ra,-692(ra) # 310 <timer_start>
 5cc:	00012623          	sw	zero,12(sp)
 5d0:	00100793          	addi	a5,zero,1
 5d4:	00f12423          	sw	a5,8(sp)
 5d8:	00100793          	addi	a5,zero,1
 5dc:	00f12223          	sw	a5,4(sp)
 5e0:	00012823          	sw	zero,16(sp)
 5e4:	00012e23          	sw	zero,28(sp)
 5e8:	0200006f          	jal	zero,608 <main+0xbc>
 5ec:	00c12703          	lw	a4,12(sp)
 5f0:	01c12783          	lw	a5,28(sp)
 5f4:	00f707b3          	add	a5,a4,a5
 5f8:	00f12623          	sw	a5,12(sp)
 5fc:	01c12783          	lw	a5,28(sp)
 600:	00178793          	addi	a5,a5,1
 604:	00f12e23          	sw	a5,28(sp)
 608:	01c12703          	lw	a4,28(sp)
 60c:	00900793          	addi	a5,zero,9
 610:	fce7dee3          	bge	a5,a4,5ec <main+0xa0>
 614:	00012c23          	sw	zero,24(sp)
 618:	0540006f          	jal	zero,66c <main+0x120>
 61c:	00012a23          	sw	zero,20(sp)
 620:	0340006f          	jal	zero,654 <main+0x108>
 624:	01412583          	lw	a1,20(sp)
 628:	01812503          	lw	a0,24(sp)
 62c:	00000097          	auipc	ra,0x0
 630:	238080e7          	jalr	ra,568(ra) # 864 <__mulsi3>
 634:	00050793          	addi	a5,a0,0
 638:	00078713          	addi	a4,a5,0
 63c:	00812783          	lw	a5,8(sp)
 640:	00f707b3          	add	a5,a4,a5
 644:	00f12423          	sw	a5,8(sp)
 648:	01412783          	lw	a5,20(sp)
 64c:	00178793          	addi	a5,a5,1
 650:	00f12a23          	sw	a5,20(sp)
 654:	01412703          	lw	a4,20(sp)
 658:	00400793          	addi	a5,zero,4
 65c:	fce7d4e3          	bge	a5,a4,624 <main+0xd8>
 660:	01812783          	lw	a5,24(sp)
 664:	00178793          	addi	a5,a5,1
 668:	00f12c23          	sw	a5,24(sp)
 66c:	01812703          	lw	a4,24(sp)
 670:	00400793          	addi	a5,zero,4
 674:	fae7d4e3          	bge	a5,a4,61c <main+0xd0>
 678:	00812783          	lw	a5,8(sp)
 67c:	02f05063          	bge	zero,a5,69c <main+0x150>
 680:	00812783          	lw	a5,8(sp)
 684:	00179793          	slli	a5,a5,0x1
 688:	00f12223          	sw	a5,4(sp)
 68c:	0100006f          	jal	zero,69c <main+0x150>
 690:	00412783          	lw	a5,4(sp)
 694:	fff78793          	addi	a5,a5,-1
 698:	00f12223          	sw	a5,4(sp)
 69c:	00412783          	lw	a5,4(sp)
 6a0:	fef048e3          	blt	zero,a5,690 <main+0x144>
 6a4:	00c12703          	lw	a4,12(sp)
 6a8:	41f75793          	srai	a5,a4,0x1f
 6ac:	01e7d793          	srli	a5,a5,0x1e
 6b0:	00f70733          	add	a4,a4,a5
 6b4:	00377713          	andi	a4,a4,3
 6b8:	40f707b3          	sub	a5,a4,a5
 6bc:	00200713          	addi	a4,zero,2
 6c0:	02e78a63          	beq	a5,a4,6f4 <main+0x1a8>
 6c4:	00200713          	addi	a4,zero,2
 6c8:	02f74c63          	blt	a4,a5,700 <main+0x1b4>
 6cc:	00078863          	beq	a5,zero,6dc <main+0x190>
 6d0:	00100713          	addi	a4,zero,1
 6d4:	00e78a63          	beq	a5,a4,6e8 <main+0x19c>
 6d8:	0280006f          	jal	zero,700 <main+0x1b4>
 6dc:	00c12783          	lw	a5,12(sp)
 6e0:	00178793          	addi	a5,a5,1
 6e4:	00f12623          	sw	a5,12(sp)
 6e8:	00c12783          	lw	a5,12(sp)
 6ec:	00278793          	addi	a5,a5,2
 6f0:	00f12623          	sw	a5,12(sp)
 6f4:	00c12783          	lw	a5,12(sp)
 6f8:	00378793          	addi	a5,a5,3
 6fc:	00f12623          	sw	a5,12(sp)
 700:	00c12783          	lw	a5,12(sp)
 704:	00478793          	addi	a5,a5,4
 708:	00f12623          	sw	a5,12(sp)
 70c:	000017b7          	lui	a5,0x1
 710:	96878513          	addi	a0,a5,-1688 # 968 <timer0>
 714:	00000097          	auipc	ra,0x0
 718:	c20080e7          	jalr	ra,-992(ra) # 334 <timer_stop>
 71c:	000017b7          	lui	a5,0x1
 720:	96878513          	addi	a0,a5,-1688 # 968 <timer0>
 724:	00000097          	auipc	ra,0x0
 728:	c30080e7          	jalr	ra,-976(ra) # 354 <timer_get_count>
 72c:	00050793          	addi	a5,a0,0
 730:	00f12823          	sw	a5,16(sp)
 734:	000017b7          	lui	a5,0x1
 738:	93c78593          	addi	a1,a5,-1732 # 93c <__text_end>
 73c:	000017b7          	lui	a5,0x1
 740:	96478513          	addi	a0,a5,-1692 # 964 <uart0>
 744:	00000097          	auipc	ra,0x0
 748:	d88080e7          	jalr	ra,-632(ra) # 4cc <print_s>
 74c:	01012583          	lw	a1,16(sp)
 750:	000017b7          	lui	a5,0x1
 754:	96478513          	addi	a0,a5,-1692 # 964 <uart0>
 758:	00000097          	auipc	ra,0x0
 75c:	da4080e7          	jalr	ra,-604(ra) # 4fc <print_i>
 760:	000017b7          	lui	a5,0x1
 764:	95478593          	addi	a1,a5,-1708 # 954 <__text_end+0x18>
 768:	000017b7          	lui	a5,0x1
 76c:	96478513          	addi	a0,a5,-1692 # 964 <uart0>
 770:	00000097          	auipc	ra,0x0
 774:	d5c080e7          	jalr	ra,-676(ra) # 4cc <print_s>
 778:	000017b7          	lui	a5,0x1
 77c:	95878593          	addi	a1,a5,-1704 # 958 <__text_end+0x1c>
 780:	000017b7          	lui	a5,0x1
 784:	96478513          	addi	a0,a5,-1692 # 964 <uart0>
 788:	00000097          	auipc	ra,0x0
 78c:	d44080e7          	jalr	ra,-700(ra) # 4cc <print_s>
 790:	00c12783          	lw	a5,12(sp)
 794:	00078593          	addi	a1,a5,0
 798:	000017b7          	lui	a5,0x1
 79c:	96478513          	addi	a0,a5,-1692 # 964 <uart0>
 7a0:	00000097          	auipc	ra,0x0
 7a4:	d5c080e7          	jalr	ra,-676(ra) # 4fc <print_i>
 7a8:	000017b7          	lui	a5,0x1
 7ac:	95478593          	addi	a1,a5,-1708 # 954 <__text_end+0x18>
 7b0:	000017b7          	lui	a5,0x1
 7b4:	96478513          	addi	a0,a5,-1692 # 964 <uart0>
 7b8:	00000097          	auipc	ra,0x0
 7bc:	d14080e7          	jalr	ra,-748(ra) # 4cc <print_s>
 7c0:	000017b7          	lui	a5,0x1
 7c4:	95c78593          	addi	a1,a5,-1700 # 95c <__text_end+0x20>
 7c8:	000017b7          	lui	a5,0x1
 7cc:	96478513          	addi	a0,a5,-1692 # 964 <uart0>
 7d0:	00000097          	auipc	ra,0x0
 7d4:	cfc080e7          	jalr	ra,-772(ra) # 4cc <print_s>
 7d8:	00812783          	lw	a5,8(sp)
 7dc:	00078593          	addi	a1,a5,0
 7e0:	000017b7          	lui	a5,0x1
 7e4:	96478513          	addi	a0,a5,-1692 # 964 <uart0>
 7e8:	00000097          	auipc	ra,0x0
 7ec:	d14080e7          	jalr	ra,-748(ra) # 4fc <print_i>
 7f0:	000017b7          	lui	a5,0x1
 7f4:	95478593          	addi	a1,a5,-1708 # 954 <__text_end+0x18>
 7f8:	000017b7          	lui	a5,0x1
 7fc:	96478513          	addi	a0,a5,-1692 # 964 <uart0>
 800:	00000097          	auipc	ra,0x0
 804:	ccc080e7          	jalr	ra,-820(ra) # 4cc <print_s>
 808:	000017b7          	lui	a5,0x1
 80c:	96078593          	addi	a1,a5,-1696 # 960 <__text_end+0x24>
 810:	000017b7          	lui	a5,0x1
 814:	96478513          	addi	a0,a5,-1692 # 964 <uart0>
 818:	00000097          	auipc	ra,0x0
 81c:	cb4080e7          	jalr	ra,-844(ra) # 4cc <print_s>
 820:	00412783          	lw	a5,4(sp)
 824:	00078593          	addi	a1,a5,0
 828:	000017b7          	lui	a5,0x1
 82c:	96478513          	addi	a0,a5,-1692 # 964 <uart0>
 830:	00000097          	auipc	ra,0x0
 834:	ccc080e7          	jalr	ra,-820(ra) # 4fc <print_i>
 838:	000017b7          	lui	a5,0x1
 83c:	95478593          	addi	a1,a5,-1708 # 954 <__text_end+0x18>
 840:	000017b7          	lui	a5,0x1
 844:	96478513          	addi	a0,a5,-1692 # 964 <uart0>
 848:	00000097          	auipc	ra,0x0
 84c:	c84080e7          	jalr	ra,-892(ra) # 4cc <print_s>
 850:	00000793          	addi	a5,zero,0
 854:	00078513          	addi	a0,a5,0
 858:	02c12083          	lw	ra,44(sp)
 85c:	03010113          	addi	sp,sp,48
 860:	00008067          	jalr	zero,0(ra)

00000864 <__mulsi3>:
 864:	00050613          	addi	a2,a0,0
 868:	00000513          	addi	a0,zero,0
 86c:	0015f693          	andi	a3,a1,1
 870:	00068463          	beq	a3,zero,878 <__mulsi3+0x14>
 874:	00c50533          	add	a0,a0,a2
 878:	0015d593          	srli	a1,a1,0x1
 87c:	00161613          	slli	a2,a2,0x1
 880:	fe0596e3          	bne	a1,zero,86c <__mulsi3+0x8>
 884:	00008067          	jalr	zero,0(ra)

00000888 <__divsi3>:
 888:	06054063          	blt	a0,zero,8e8 <__umodsi3+0x10>
 88c:	0605c663          	blt	a1,zero,8f8 <__umodsi3+0x20>

00000890 <__hidden___udivsi3>:
 890:	00058613          	addi	a2,a1,0 # c0002000 <__stack_top+0xbffe2000>
 894:	00050593          	addi	a1,a0,0
 898:	fff00513          	addi	a0,zero,-1
 89c:	02060c63          	beq	a2,zero,8d4 <__hidden___udivsi3+0x44>
 8a0:	00100693          	addi	a3,zero,1
 8a4:	00b67a63          	bgeu	a2,a1,8b8 <__hidden___udivsi3+0x28>
 8a8:	00c05863          	bge	zero,a2,8b8 <__hidden___udivsi3+0x28>
 8ac:	00161613          	slli	a2,a2,0x1
 8b0:	00169693          	slli	a3,a3,0x1
 8b4:	feb66ae3          	bltu	a2,a1,8a8 <__hidden___udivsi3+0x18>
 8b8:	00000513          	addi	a0,zero,0
 8bc:	00c5e663          	bltu	a1,a2,8c8 <__hidden___udivsi3+0x38>
 8c0:	40c585b3          	sub	a1,a1,a2
 8c4:	00d56533          	or	a0,a0,a3
 8c8:	0016d693          	srli	a3,a3,0x1
 8cc:	00165613          	srli	a2,a2,0x1
 8d0:	fe0696e3          	bne	a3,zero,8bc <__hidden___udivsi3+0x2c>
 8d4:	00008067          	jalr	zero,0(ra)

000008d8 <__umodsi3>:
 8d8:	00008293          	addi	t0,ra,0
 8dc:	fb5ff0ef          	jal	ra,890 <__hidden___udivsi3>
 8e0:	00058513          	addi	a0,a1,0
 8e4:	00028067          	jalr	zero,0(t0)
 8e8:	40a00533          	sub	a0,zero,a0
 8ec:	00b04863          	blt	zero,a1,8fc <__umodsi3+0x24>
 8f0:	40b005b3          	sub	a1,zero,a1
 8f4:	f9dff06f          	jal	zero,890 <__hidden___udivsi3>
 8f8:	40b005b3          	sub	a1,zero,a1
 8fc:	00008293          	addi	t0,ra,0
 900:	f91ff0ef          	jal	ra,890 <__hidden___udivsi3>
 904:	40a00533          	sub	a0,zero,a0
 908:	00028067          	jalr	zero,0(t0)

0000090c <__modsi3>:
 90c:	00008293          	addi	t0,ra,0
 910:	0005ca63          	blt	a1,zero,924 <__modsi3+0x18>
 914:	00054c63          	blt	a0,zero,92c <__modsi3+0x20>
 918:	f79ff0ef          	jal	ra,890 <__hidden___udivsi3>
 91c:	00058513          	addi	a0,a1,0
 920:	00028067          	jalr	zero,0(t0)
 924:	40b005b3          	sub	a1,zero,a1
 928:	fe0558e3          	bge	a0,zero,918 <__modsi3+0xc>
 92c:	40a00533          	sub	a0,zero,a0
 930:	f61ff0ef          	jal	ra,890 <__hidden___udivsi3>
 934:	40b00533          	sub	a0,zero,a1
 938:	00028067          	jalr	zero,0(t0)
